# This program is free software: you can redistribute it and/or modify
# it under the terms of the GNU Lesser General Public License as published by
# the Free Software Foundation, either version 3 of the License, or
# (at your option) any later version.
#
# This program is distributed in the hope that it will be useful,
# but WITHOUT ANY WARRANTY; without even the implied warranty of
# MERCHANTABILITY or FITNESS FOR A PARTICULAR PURPOSE.  See the
# GNU Lesser General Public License for more details.
#
# You should have received a copy of the GNU Lesser General Public License
# along with this program. If not, see https://www.gnu.org/licenses/.

.global ForwardCallG
.global ForwardCallF
.global ForwardCallD
.global ForwardCallRG
.global ForwardCallRF
.global ForwardCallRD

#define ENDBR32 .byte 0xf3, 0x0f, 0x1e, 0xfb

# Copy function pointer to EAX, in order to save it through argument forwarding.
# Also make a copy of the SP to CallData::old_sp because the callback system might need it.
# Save ESP in EBX (non-volatile), and use carefully assembled stack provided by caller.
.macro prologue
    .cfi_startproc
    .cfi_def_cfa esp, 4
    ENDBR32
    push %ebp
    .cfi_def_cfa esp, 8
    movl %esp, %ebp
    .cfi_def_cfa ebp, 8
    movl 16(%esp), %eax
    movl %esp, 0(%eax)
    movl 8(%esp), %eax
    movl 12(%esp), %esp
.endm

.macro fastcall
    movl 0(%esp), %ecx
    movl 4(%esp), %edx
    addl $16, %esp
.endm

# Call native function.
# Once done, restore normal stack pointer and return.
# The return value is passed back untouched.
.macro epilogue
    call *%eax
    movl %ebp, %esp
    pop %ebp
    .cfi_def_cfa esp, 4
    ret
    .cfi_endproc
.endm

ForwardCallG:
    prologue
    epilogue

ForwardCallF:
    prologue
    epilogue

ForwardCallD:
    prologue
    epilogue

ForwardCallRG:
    prologue
    fastcall
    epilogue

ForwardCallRF:
    prologue
    fastcall
    epilogue

ForwardCallRD:
    prologue
    fastcall
    epilogue

# Callbacks
# ----------------------------

.global RelayCallback
.global CallSwitchStack

# Call the C function RelayCallback with the following arguments:
# static trampoline ID, the current stack pointer, a pointer to the stack arguments of this call,
# and a pointer to a struct that will contain the result registers.
# After the call, simply load these registers from the output struct.
# Depending on ABI, call convention and return value size, we need to issue ret <something>. Since ret
# only takes an immediate value, and I prefer not to branch, the return address is moved instead according
# to BackRegisters::ret_pop before ret is issued.
.macro trampoline id
    .cfi_startproc
    .cfi_def_cfa esp, 4
    ENDBR32
    sub $44, %esp
    .cfi_def_cfa esp, 48
    movl $\id, 0(%esp)
    movl %esp, 4(%esp)
    leal 48(%esp), %eax
    movl %eax, 8(%esp)
    leal 16(%esp), %eax
    movl %eax, 12(%esp)
    call GetEIP
    addl $_GLOBAL_OFFSET_TABLE_, %ecx
    call *RelayCallback@GOT(%ecx)
    movl 44(%esp), %edx
    movl 36(%esp), %ecx
    movl %edx, 44(%esp, %ecx)
    movl 16(%esp), %eax
    movl 20(%esp), %edx
    leal 44(%esp, %ecx), %esp
    .cfi_def_cfa esp, 4
    ret
    .cfi_endproc
.endm

# This version also loads the x87 stack with the result, if need be.
# We have to branch to avoid x87 stack imbalance.
.macro trampoline_x87 id
    .cfi_startproc
    .cfi_def_cfa esp, 4
    ENDBR32
    sub $44, %esp
    .cfi_def_cfa esp, 48
    movl $\id, 0(%esp)
    movl %esp, 4(%esp)
    leal 48(%esp), %eax
    movl %eax, 8(%esp)
    leal 16(%esp), %eax
    movl %eax, 12(%esp)
    call GetEIP
    addl $_GLOBAL_OFFSET_TABLE_, %ecx
    call *RelayCallback@GOT(%ecx)
    movl 44(%esp), %edx
    movl 36(%esp), %ecx
    movl %edx, 44(%esp, %ecx, 4)
    cmpb $0, 32(%esp)
    jne 2f
1:
    flds 24(%esp)
    leal 44(%esp, %ecx), %esp
    .cfi_def_cfa esp, 4
    ret
2:
    fldl 24(%esp)
    leal 44(%esp, %ecx), %esp
    .cfi_def_cfa esp, 4
    ret
    .cfi_endproc
.endm

GetEIP:
    movl (%esp), %ecx
    ret

# When a callback is relayed, Koffi will call into Node.js and V8 to execute Javascript.
# The problem is that we're still running on the separate Koffi stack, and V8 will
# probably misdetect this as a "stack overflow". We have to restore the old
# stack pointer, call Node.js/V8 and go back to ours.
CallSwitchStack:
    .cfi_startproc
    .cfi_def_cfa esp, 4
    ENDBR32
    push %ebp
    .cfi_def_cfa esp, 8
    movl %esp, %ebp
    .cfi_def_cfa ebp, 8
    movl 28(%esp), %edx
    movl 24(%esp), %ecx
    movl %esp, %eax
    subl 0(%ecx), %eax
    andl $-16, %eax
    movl %eax, 4(%ecx)
    movl 20(%esp), %esp
    subl $28, %esp
    movl 8(%ebp), %eax
    movl %eax, 0(%esp)
    movl 12(%ebp), %eax
    movl %eax, 4(%esp)
    movl 16(%ebp), %eax
    movl %eax, 8(%esp)
    call *%edx
    mov %ebp, %esp
    .cfi_def_cfa esp, 8
    pop %ebp
    .cfi_def_cfa esp, 4
    ret
    .cfi_endproc

# Trampolines
# ----------------------------

.global Trampoline0
.global Trampoline1
.global Trampoline2
.global Trampoline3
.global Trampoline4
.global Trampoline5
.global Trampoline6
.global Trampoline7
.global Trampoline8
.global Trampoline9
.global Trampoline10
.global Trampoline11
.global Trampoline12
.global Trampoline13
.global Trampoline14
.global Trampoline15
.global Trampoline16
.global Trampoline17
.global Trampoline18
.global Trampoline19
.global Trampoline20
.global Trampoline21
.global Trampoline22
.global Trampoline23
.global Trampoline24
.global Trampoline25
.global Trampoline26
.global Trampoline27
.global Trampoline28
.global Trampoline29
.global Trampoline30
.global Trampoline31
.global Trampoline32
.global Trampoline33
.global Trampoline34
.global Trampoline35
.global Trampoline36
.global Trampoline37
.global Trampoline38
.global Trampoline39
.global Trampoline40
.global Trampoline41
.global Trampoline42
.global Trampoline43
.global Trampoline44
.global Trampoline45
.global Trampoline46
.global Trampoline47
.global Trampoline48
.global Trampoline49
.global Trampoline50
.global Trampoline51
.global Trampoline52
.global Trampoline53
.global Trampoline54
.global Trampoline55
.global Trampoline56
.global Trampoline57
.global Trampoline58
.global Trampoline59
.global Trampoline60
.global Trampoline61
.global Trampoline62
.global Trampoline63
.global Trampoline64
.global Trampoline65
.global Trampoline66
.global Trampoline67
.global Trampoline68
.global Trampoline69
.global Trampoline70
.global Trampoline71
.global Trampoline72
.global Trampoline73
.global Trampoline74
.global Trampoline75
.global Trampoline76
.global Trampoline77
.global Trampoline78
.global Trampoline79
.global Trampoline80
.global Trampoline81
.global Trampoline82
.global Trampoline83
.global Trampoline84
.global Trampoline85
.global Trampoline86
.global Trampoline87
.global Trampoline88
.global Trampoline89
.global Trampoline90
.global Trampoline91
.global Trampoline92
.global Trampoline93
.global Trampoline94
.global Trampoline95
.global Trampoline96
.global Trampoline97
.global Trampoline98
.global Trampoline99
.global Trampoline100
.global Trampoline101
.global Trampoline102
.global Trampoline103
.global Trampoline104
.global Trampoline105
.global Trampoline106
.global Trampoline107
.global Trampoline108
.global Trampoline109
.global Trampoline110
.global Trampoline111
.global Trampoline112
.global Trampoline113
.global Trampoline114
.global Trampoline115
.global Trampoline116
.global Trampoline117
.global Trampoline118
.global Trampoline119
.global Trampoline120
.global Trampoline121
.global Trampoline122
.global Trampoline123
.global Trampoline124
.global Trampoline125
.global Trampoline126
.global Trampoline127
.global Trampoline128
.global Trampoline129
.global Trampoline130
.global Trampoline131
.global Trampoline132
.global Trampoline133
.global Trampoline134
.global Trampoline135
.global Trampoline136
.global Trampoline137
.global Trampoline138
.global Trampoline139
.global Trampoline140
.global Trampoline141
.global Trampoline142
.global Trampoline143
.global Trampoline144
.global Trampoline145
.global Trampoline146
.global Trampoline147
.global Trampoline148
.global Trampoline149
.global Trampoline150
.global Trampoline151
.global Trampoline152
.global Trampoline153
.global Trampoline154
.global Trampoline155
.global Trampoline156
.global Trampoline157
.global Trampoline158
.global Trampoline159
.global Trampoline160
.global Trampoline161
.global Trampoline162
.global Trampoline163
.global Trampoline164
.global Trampoline165
.global Trampoline166
.global Trampoline167
.global Trampoline168
.global Trampoline169
.global Trampoline170
.global Trampoline171
.global Trampoline172
.global Trampoline173
.global Trampoline174
.global Trampoline175
.global Trampoline176
.global Trampoline177
.global Trampoline178
.global Trampoline179
.global Trampoline180
.global Trampoline181
.global Trampoline182
.global Trampoline183
.global Trampoline184
.global Trampoline185
.global Trampoline186
.global Trampoline187
.global Trampoline188
.global Trampoline189
.global Trampoline190
.global Trampoline191
.global Trampoline192
.global Trampoline193
.global Trampoline194
.global Trampoline195
.global Trampoline196
.global Trampoline197
.global Trampoline198
.global Trampoline199
.global Trampoline200
.global Trampoline201
.global Trampoline202
.global Trampoline203
.global Trampoline204
.global Trampoline205
.global Trampoline206
.global Trampoline207
.global Trampoline208
.global Trampoline209
.global Trampoline210
.global Trampoline211
.global Trampoline212
.global Trampoline213
.global Trampoline214
.global Trampoline215
.global Trampoline216
.global Trampoline217
.global Trampoline218
.global Trampoline219
.global Trampoline220
.global Trampoline221
.global Trampoline222
.global Trampoline223
.global Trampoline224
.global Trampoline225
.global Trampoline226
.global Trampoline227
.global Trampoline228
.global Trampoline229
.global Trampoline230
.global Trampoline231
.global Trampoline232
.global Trampoline233
.global Trampoline234
.global Trampoline235
.global Trampoline236
.global Trampoline237
.global Trampoline238
.global Trampoline239
.global Trampoline240
.global Trampoline241
.global Trampoline242
.global Trampoline243
.global Trampoline244
.global Trampoline245
.global Trampoline246
.global Trampoline247
.global Trampoline248
.global Trampoline249
.global Trampoline250
.global Trampoline251
.global Trampoline252
.global Trampoline253
.global Trampoline254
.global Trampoline255
.global Trampoline256
.global Trampoline257
.global Trampoline258
.global Trampoline259
.global Trampoline260
.global Trampoline261
.global Trampoline262
.global Trampoline263
.global Trampoline264
.global Trampoline265
.global Trampoline266
.global Trampoline267
.global Trampoline268
.global Trampoline269
.global Trampoline270
.global Trampoline271
.global Trampoline272
.global Trampoline273
.global Trampoline274
.global Trampoline275
.global Trampoline276
.global Trampoline277
.global Trampoline278
.global Trampoline279
.global Trampoline280
.global Trampoline281
.global Trampoline282
.global Trampoline283
.global Trampoline284
.global Trampoline285
.global Trampoline286
.global Trampoline287
.global Trampoline288
.global Trampoline289
.global Trampoline290
.global Trampoline291
.global Trampoline292
.global Trampoline293
.global Trampoline294
.global Trampoline295
.global Trampoline296
.global Trampoline297
.global Trampoline298
.global Trampoline299
.global Trampoline300
.global Trampoline301
.global Trampoline302
.global Trampoline303
.global Trampoline304
.global Trampoline305
.global Trampoline306
.global Trampoline307
.global Trampoline308
.global Trampoline309
.global Trampoline310
.global Trampoline311
.global Trampoline312
.global Trampoline313
.global Trampoline314
.global Trampoline315
.global Trampoline316
.global Trampoline317
.global Trampoline318
.global Trampoline319
.global Trampoline320
.global Trampoline321
.global Trampoline322
.global Trampoline323
.global Trampoline324
.global Trampoline325
.global Trampoline326
.global Trampoline327
.global Trampoline328
.global Trampoline329
.global Trampoline330
.global Trampoline331
.global Trampoline332
.global Trampoline333
.global Trampoline334
.global Trampoline335
.global Trampoline336
.global Trampoline337
.global Trampoline338
.global Trampoline339
.global Trampoline340
.global Trampoline341
.global Trampoline342
.global Trampoline343
.global Trampoline344
.global Trampoline345
.global Trampoline346
.global Trampoline347
.global Trampoline348
.global Trampoline349
.global Trampoline350
.global Trampoline351
.global Trampoline352
.global Trampoline353
.global Trampoline354
.global Trampoline355
.global Trampoline356
.global Trampoline357
.global Trampoline358
.global Trampoline359
.global Trampoline360
.global Trampoline361
.global Trampoline362
.global Trampoline363
.global Trampoline364
.global Trampoline365
.global Trampoline366
.global Trampoline367
.global Trampoline368
.global Trampoline369
.global Trampoline370
.global Trampoline371
.global Trampoline372
.global Trampoline373
.global Trampoline374
.global Trampoline375
.global Trampoline376
.global Trampoline377
.global Trampoline378
.global Trampoline379
.global Trampoline380
.global Trampoline381
.global Trampoline382
.global Trampoline383
.global Trampoline384
.global Trampoline385
.global Trampoline386
.global Trampoline387
.global Trampoline388
.global Trampoline389
.global Trampoline390
.global Trampoline391
.global Trampoline392
.global Trampoline393
.global Trampoline394
.global Trampoline395
.global Trampoline396
.global Trampoline397
.global Trampoline398
.global Trampoline399
.global Trampoline400
.global Trampoline401
.global Trampoline402
.global Trampoline403
.global Trampoline404
.global Trampoline405
.global Trampoline406
.global Trampoline407
.global Trampoline408
.global Trampoline409
.global Trampoline410
.global Trampoline411
.global Trampoline412
.global Trampoline413
.global Trampoline414
.global Trampoline415
.global Trampoline416
.global Trampoline417
.global Trampoline418
.global Trampoline419
.global Trampoline420
.global Trampoline421
.global Trampoline422
.global Trampoline423
.global Trampoline424
.global Trampoline425
.global Trampoline426
.global Trampoline427
.global Trampoline428
.global Trampoline429
.global Trampoline430
.global Trampoline431
.global Trampoline432
.global Trampoline433
.global Trampoline434
.global Trampoline435
.global Trampoline436
.global Trampoline437
.global Trampoline438
.global Trampoline439
.global Trampoline440
.global Trampoline441
.global Trampoline442
.global Trampoline443
.global Trampoline444
.global Trampoline445
.global Trampoline446
.global Trampoline447
.global Trampoline448
.global Trampoline449
.global Trampoline450
.global Trampoline451
.global Trampoline452
.global Trampoline453
.global Trampoline454
.global Trampoline455
.global Trampoline456
.global Trampoline457
.global Trampoline458
.global Trampoline459
.global Trampoline460
.global Trampoline461
.global Trampoline462
.global Trampoline463
.global Trampoline464
.global Trampoline465
.global Trampoline466
.global Trampoline467
.global Trampoline468
.global Trampoline469
.global Trampoline470
.global Trampoline471
.global Trampoline472
.global Trampoline473
.global Trampoline474
.global Trampoline475
.global Trampoline476
.global Trampoline477
.global Trampoline478
.global Trampoline479
.global Trampoline480
.global Trampoline481
.global Trampoline482
.global Trampoline483
.global Trampoline484
.global Trampoline485
.global Trampoline486
.global Trampoline487
.global Trampoline488
.global Trampoline489
.global Trampoline490
.global Trampoline491
.global Trampoline492
.global Trampoline493
.global Trampoline494
.global Trampoline495
.global Trampoline496
.global Trampoline497
.global Trampoline498
.global Trampoline499
.global Trampoline500
.global Trampoline501
.global Trampoline502
.global Trampoline503
.global Trampoline504
.global Trampoline505
.global Trampoline506
.global Trampoline507
.global Trampoline508
.global Trampoline509
.global Trampoline510
.global Trampoline511
.global Trampoline512
.global Trampoline513
.global Trampoline514
.global Trampoline515
.global Trampoline516
.global Trampoline517
.global Trampoline518
.global Trampoline519
.global Trampoline520
.global Trampoline521
.global Trampoline522
.global Trampoline523
.global Trampoline524
.global Trampoline525
.global Trampoline526
.global Trampoline527
.global Trampoline528
.global Trampoline529
.global Trampoline530
.global Trampoline531
.global Trampoline532
.global Trampoline533
.global Trampoline534
.global Trampoline535
.global Trampoline536
.global Trampoline537
.global Trampoline538
.global Trampoline539
.global Trampoline540
.global Trampoline541
.global Trampoline542
.global Trampoline543
.global Trampoline544
.global Trampoline545
.global Trampoline546
.global Trampoline547
.global Trampoline548
.global Trampoline549
.global Trampoline550
.global Trampoline551
.global Trampoline552
.global Trampoline553
.global Trampoline554
.global Trampoline555
.global Trampoline556
.global Trampoline557
.global Trampoline558
.global Trampoline559
.global Trampoline560
.global Trampoline561
.global Trampoline562
.global Trampoline563
.global Trampoline564
.global Trampoline565
.global Trampoline566
.global Trampoline567
.global Trampoline568
.global Trampoline569
.global Trampoline570
.global Trampoline571
.global Trampoline572
.global Trampoline573
.global Trampoline574
.global Trampoline575
.global Trampoline576
.global Trampoline577
.global Trampoline578
.global Trampoline579
.global Trampoline580
.global Trampoline581
.global Trampoline582
.global Trampoline583
.global Trampoline584
.global Trampoline585
.global Trampoline586
.global Trampoline587
.global Trampoline588
.global Trampoline589
.global Trampoline590
.global Trampoline591
.global Trampoline592
.global Trampoline593
.global Trampoline594
.global Trampoline595
.global Trampoline596
.global Trampoline597
.global Trampoline598
.global Trampoline599
.global Trampoline600
.global Trampoline601
.global Trampoline602
.global Trampoline603
.global Trampoline604
.global Trampoline605
.global Trampoline606
.global Trampoline607
.global Trampoline608
.global Trampoline609
.global Trampoline610
.global Trampoline611
.global Trampoline612
.global Trampoline613
.global Trampoline614
.global Trampoline615
.global Trampoline616
.global Trampoline617
.global Trampoline618
.global Trampoline619
.global Trampoline620
.global Trampoline621
.global Trampoline622
.global Trampoline623
.global Trampoline624
.global Trampoline625
.global Trampoline626
.global Trampoline627
.global Trampoline628
.global Trampoline629
.global Trampoline630
.global Trampoline631
.global Trampoline632
.global Trampoline633
.global Trampoline634
.global Trampoline635
.global Trampoline636
.global Trampoline637
.global Trampoline638
.global Trampoline639
.global Trampoline640
.global Trampoline641
.global Trampoline642
.global Trampoline643
.global Trampoline644
.global Trampoline645
.global Trampoline646
.global Trampoline647
.global Trampoline648
.global Trampoline649
.global Trampoline650
.global Trampoline651
.global Trampoline652
.global Trampoline653
.global Trampoline654
.global Trampoline655
.global Trampoline656
.global Trampoline657
.global Trampoline658
.global Trampoline659
.global Trampoline660
.global Trampoline661
.global Trampoline662
.global Trampoline663
.global Trampoline664
.global Trampoline665
.global Trampoline666
.global Trampoline667
.global Trampoline668
.global Trampoline669
.global Trampoline670
.global Trampoline671
.global Trampoline672
.global Trampoline673
.global Trampoline674
.global Trampoline675
.global Trampoline676
.global Trampoline677
.global Trampoline678
.global Trampoline679
.global Trampoline680
.global Trampoline681
.global Trampoline682
.global Trampoline683
.global Trampoline684
.global Trampoline685
.global Trampoline686
.global Trampoline687
.global Trampoline688
.global Trampoline689
.global Trampoline690
.global Trampoline691
.global Trampoline692
.global Trampoline693
.global Trampoline694
.global Trampoline695
.global Trampoline696
.global Trampoline697
.global Trampoline698
.global Trampoline699
.global Trampoline700
.global Trampoline701
.global Trampoline702
.global Trampoline703
.global Trampoline704
.global Trampoline705
.global Trampoline706
.global Trampoline707
.global Trampoline708
.global Trampoline709
.global Trampoline710
.global Trampoline711
.global Trampoline712
.global Trampoline713
.global Trampoline714
.global Trampoline715
.global Trampoline716
.global Trampoline717
.global Trampoline718
.global Trampoline719
.global Trampoline720
.global Trampoline721
.global Trampoline722
.global Trampoline723
.global Trampoline724
.global Trampoline725
.global Trampoline726
.global Trampoline727
.global Trampoline728
.global Trampoline729
.global Trampoline730
.global Trampoline731
.global Trampoline732
.global Trampoline733
.global Trampoline734
.global Trampoline735
.global Trampoline736
.global Trampoline737
.global Trampoline738
.global Trampoline739
.global Trampoline740
.global Trampoline741
.global Trampoline742
.global Trampoline743
.global Trampoline744
.global Trampoline745
.global Trampoline746
.global Trampoline747
.global Trampoline748
.global Trampoline749
.global Trampoline750
.global Trampoline751
.global Trampoline752
.global Trampoline753
.global Trampoline754
.global Trampoline755
.global Trampoline756
.global Trampoline757
.global Trampoline758
.global Trampoline759
.global Trampoline760
.global Trampoline761
.global Trampoline762
.global Trampoline763
.global Trampoline764
.global Trampoline765
.global Trampoline766
.global Trampoline767
.global Trampoline768
.global Trampoline769
.global Trampoline770
.global Trampoline771
.global Trampoline772
.global Trampoline773
.global Trampoline774
.global Trampoline775
.global Trampoline776
.global Trampoline777
.global Trampoline778
.global Trampoline779
.global Trampoline780
.global Trampoline781
.global Trampoline782
.global Trampoline783
.global Trampoline784
.global Trampoline785
.global Trampoline786
.global Trampoline787
.global Trampoline788
.global Trampoline789
.global Trampoline790
.global Trampoline791
.global Trampoline792
.global Trampoline793
.global Trampoline794
.global Trampoline795
.global Trampoline796
.global Trampoline797
.global Trampoline798
.global Trampoline799
.global Trampoline800
.global Trampoline801
.global Trampoline802
.global Trampoline803
.global Trampoline804
.global Trampoline805
.global Trampoline806
.global Trampoline807
.global Trampoline808
.global Trampoline809
.global Trampoline810
.global Trampoline811
.global Trampoline812
.global Trampoline813
.global Trampoline814
.global Trampoline815
.global Trampoline816
.global Trampoline817
.global Trampoline818
.global Trampoline819
.global Trampoline820
.global Trampoline821
.global Trampoline822
.global Trampoline823
.global Trampoline824
.global Trampoline825
.global Trampoline826
.global Trampoline827
.global Trampoline828
.global Trampoline829
.global Trampoline830
.global Trampoline831
.global Trampoline832
.global Trampoline833
.global Trampoline834
.global Trampoline835
.global Trampoline836
.global Trampoline837
.global Trampoline838
.global Trampoline839
.global Trampoline840
.global Trampoline841
.global Trampoline842
.global Trampoline843
.global Trampoline844
.global Trampoline845
.global Trampoline846
.global Trampoline847
.global Trampoline848
.global Trampoline849
.global Trampoline850
.global Trampoline851
.global Trampoline852
.global Trampoline853
.global Trampoline854
.global Trampoline855
.global Trampoline856
.global Trampoline857
.global Trampoline858
.global Trampoline859
.global Trampoline860
.global Trampoline861
.global Trampoline862
.global Trampoline863
.global Trampoline864
.global Trampoline865
.global Trampoline866
.global Trampoline867
.global Trampoline868
.global Trampoline869
.global Trampoline870
.global Trampoline871
.global Trampoline872
.global Trampoline873
.global Trampoline874
.global Trampoline875
.global Trampoline876
.global Trampoline877
.global Trampoline878
.global Trampoline879
.global Trampoline880
.global Trampoline881
.global Trampoline882
.global Trampoline883
.global Trampoline884
.global Trampoline885
.global Trampoline886
.global Trampoline887
.global Trampoline888
.global Trampoline889
.global Trampoline890
.global Trampoline891
.global Trampoline892
.global Trampoline893
.global Trampoline894
.global Trampoline895
.global Trampoline896
.global Trampoline897
.global Trampoline898
.global Trampoline899
.global Trampoline900
.global Trampoline901
.global Trampoline902
.global Trampoline903
.global Trampoline904
.global Trampoline905
.global Trampoline906
.global Trampoline907
.global Trampoline908
.global Trampoline909
.global Trampoline910
.global Trampoline911
.global Trampoline912
.global Trampoline913
.global Trampoline914
.global Trampoline915
.global Trampoline916
.global Trampoline917
.global Trampoline918
.global Trampoline919
.global Trampoline920
.global Trampoline921
.global Trampoline922
.global Trampoline923
.global Trampoline924
.global Trampoline925
.global Trampoline926
.global Trampoline927
.global Trampoline928
.global Trampoline929
.global Trampoline930
.global Trampoline931
.global Trampoline932
.global Trampoline933
.global Trampoline934
.global Trampoline935
.global Trampoline936
.global Trampoline937
.global Trampoline938
.global Trampoline939
.global Trampoline940
.global Trampoline941
.global Trampoline942
.global Trampoline943
.global Trampoline944
.global Trampoline945
.global Trampoline946
.global Trampoline947
.global Trampoline948
.global Trampoline949
.global Trampoline950
.global Trampoline951
.global Trampoline952
.global Trampoline953
.global Trampoline954
.global Trampoline955
.global Trampoline956
.global Trampoline957
.global Trampoline958
.global Trampoline959
.global Trampoline960
.global Trampoline961
.global Trampoline962
.global Trampoline963
.global Trampoline964
.global Trampoline965
.global Trampoline966
.global Trampoline967
.global Trampoline968
.global Trampoline969
.global Trampoline970
.global Trampoline971
.global Trampoline972
.global Trampoline973
.global Trampoline974
.global Trampoline975
.global Trampoline976
.global Trampoline977
.global Trampoline978
.global Trampoline979
.global Trampoline980
.global Trampoline981
.global Trampoline982
.global Trampoline983
.global Trampoline984
.global Trampoline985
.global Trampoline986
.global Trampoline987
.global Trampoline988
.global Trampoline989
.global Trampoline990
.global Trampoline991
.global Trampoline992
.global Trampoline993
.global Trampoline994
.global Trampoline995
.global Trampoline996
.global Trampoline997
.global Trampoline998
.global Trampoline999
.global Trampoline1000
.global Trampoline1001
.global Trampoline1002
.global Trampoline1003
.global Trampoline1004
.global Trampoline1005
.global Trampoline1006
.global Trampoline1007
.global Trampoline1008
.global Trampoline1009
.global Trampoline1010
.global Trampoline1011
.global Trampoline1012
.global Trampoline1013
.global Trampoline1014
.global Trampoline1015
.global Trampoline1016
.global Trampoline1017
.global Trampoline1018
.global Trampoline1019
.global Trampoline1020
.global Trampoline1021
.global Trampoline1022
.global Trampoline1023

.global TrampolineX0
.global TrampolineX1
.global TrampolineX2
.global TrampolineX3
.global TrampolineX4
.global TrampolineX5
.global TrampolineX6
.global TrampolineX7
.global TrampolineX8
.global TrampolineX9
.global TrampolineX10
.global TrampolineX11
.global TrampolineX12
.global TrampolineX13
.global TrampolineX14
.global TrampolineX15
.global TrampolineX16
.global TrampolineX17
.global TrampolineX18
.global TrampolineX19
.global TrampolineX20
.global TrampolineX21
.global TrampolineX22
.global TrampolineX23
.global TrampolineX24
.global TrampolineX25
.global TrampolineX26
.global TrampolineX27
.global TrampolineX28
.global TrampolineX29
.global TrampolineX30
.global TrampolineX31
.global TrampolineX32
.global TrampolineX33
.global TrampolineX34
.global TrampolineX35
.global TrampolineX36
.global TrampolineX37
.global TrampolineX38
.global TrampolineX39
.global TrampolineX40
.global TrampolineX41
.global TrampolineX42
.global TrampolineX43
.global TrampolineX44
.global TrampolineX45
.global TrampolineX46
.global TrampolineX47
.global TrampolineX48
.global TrampolineX49
.global TrampolineX50
.global TrampolineX51
.global TrampolineX52
.global TrampolineX53
.global TrampolineX54
.global TrampolineX55
.global TrampolineX56
.global TrampolineX57
.global TrampolineX58
.global TrampolineX59
.global TrampolineX60
.global TrampolineX61
.global TrampolineX62
.global TrampolineX63
.global TrampolineX64
.global TrampolineX65
.global TrampolineX66
.global TrampolineX67
.global TrampolineX68
.global TrampolineX69
.global TrampolineX70
.global TrampolineX71
.global TrampolineX72
.global TrampolineX73
.global TrampolineX74
.global TrampolineX75
.global TrampolineX76
.global TrampolineX77
.global TrampolineX78
.global TrampolineX79
.global TrampolineX80
.global TrampolineX81
.global TrampolineX82
.global TrampolineX83
.global TrampolineX84
.global TrampolineX85
.global TrampolineX86
.global TrampolineX87
.global TrampolineX88
.global TrampolineX89
.global TrampolineX90
.global TrampolineX91
.global TrampolineX92
.global TrampolineX93
.global TrampolineX94
.global TrampolineX95
.global TrampolineX96
.global TrampolineX97
.global TrampolineX98
.global TrampolineX99
.global TrampolineX100
.global TrampolineX101
.global TrampolineX102
.global TrampolineX103
.global TrampolineX104
.global TrampolineX105
.global TrampolineX106
.global TrampolineX107
.global TrampolineX108
.global TrampolineX109
.global TrampolineX110
.global TrampolineX111
.global TrampolineX112
.global TrampolineX113
.global TrampolineX114
.global TrampolineX115
.global TrampolineX116
.global TrampolineX117
.global TrampolineX118
.global TrampolineX119
.global TrampolineX120
.global TrampolineX121
.global TrampolineX122
.global TrampolineX123
.global TrampolineX124
.global TrampolineX125
.global TrampolineX126
.global TrampolineX127
.global TrampolineX128
.global TrampolineX129
.global TrampolineX130
.global TrampolineX131
.global TrampolineX132
.global TrampolineX133
.global TrampolineX134
.global TrampolineX135
.global TrampolineX136
.global TrampolineX137
.global TrampolineX138
.global TrampolineX139
.global TrampolineX140
.global TrampolineX141
.global TrampolineX142
.global TrampolineX143
.global TrampolineX144
.global TrampolineX145
.global TrampolineX146
.global TrampolineX147
.global TrampolineX148
.global TrampolineX149
.global TrampolineX150
.global TrampolineX151
.global TrampolineX152
.global TrampolineX153
.global TrampolineX154
.global TrampolineX155
.global TrampolineX156
.global TrampolineX157
.global TrampolineX158
.global TrampolineX159
.global TrampolineX160
.global TrampolineX161
.global TrampolineX162
.global TrampolineX163
.global TrampolineX164
.global TrampolineX165
.global TrampolineX166
.global TrampolineX167
.global TrampolineX168
.global TrampolineX169
.global TrampolineX170
.global TrampolineX171
.global TrampolineX172
.global TrampolineX173
.global TrampolineX174
.global TrampolineX175
.global TrampolineX176
.global TrampolineX177
.global TrampolineX178
.global TrampolineX179
.global TrampolineX180
.global TrampolineX181
.global TrampolineX182
.global TrampolineX183
.global TrampolineX184
.global TrampolineX185
.global TrampolineX186
.global TrampolineX187
.global TrampolineX188
.global TrampolineX189
.global TrampolineX190
.global TrampolineX191
.global TrampolineX192
.global TrampolineX193
.global TrampolineX194
.global TrampolineX195
.global TrampolineX196
.global TrampolineX197
.global TrampolineX198
.global TrampolineX199
.global TrampolineX200
.global TrampolineX201
.global TrampolineX202
.global TrampolineX203
.global TrampolineX204
.global TrampolineX205
.global TrampolineX206
.global TrampolineX207
.global TrampolineX208
.global TrampolineX209
.global TrampolineX210
.global TrampolineX211
.global TrampolineX212
.global TrampolineX213
.global TrampolineX214
.global TrampolineX215
.global TrampolineX216
.global TrampolineX217
.global TrampolineX218
.global TrampolineX219
.global TrampolineX220
.global TrampolineX221
.global TrampolineX222
.global TrampolineX223
.global TrampolineX224
.global TrampolineX225
.global TrampolineX226
.global TrampolineX227
.global TrampolineX228
.global TrampolineX229
.global TrampolineX230
.global TrampolineX231
.global TrampolineX232
.global TrampolineX233
.global TrampolineX234
.global TrampolineX235
.global TrampolineX236
.global TrampolineX237
.global TrampolineX238
.global TrampolineX239
.global TrampolineX240
.global TrampolineX241
.global TrampolineX242
.global TrampolineX243
.global TrampolineX244
.global TrampolineX245
.global TrampolineX246
.global TrampolineX247
.global TrampolineX248
.global TrampolineX249
.global TrampolineX250
.global TrampolineX251
.global TrampolineX252
.global TrampolineX253
.global TrampolineX254
.global TrampolineX255
.global TrampolineX256
.global TrampolineX257
.global TrampolineX258
.global TrampolineX259
.global TrampolineX260
.global TrampolineX261
.global TrampolineX262
.global TrampolineX263
.global TrampolineX264
.global TrampolineX265
.global TrampolineX266
.global TrampolineX267
.global TrampolineX268
.global TrampolineX269
.global TrampolineX270
.global TrampolineX271
.global TrampolineX272
.global TrampolineX273
.global TrampolineX274
.global TrampolineX275
.global TrampolineX276
.global TrampolineX277
.global TrampolineX278
.global TrampolineX279
.global TrampolineX280
.global TrampolineX281
.global TrampolineX282
.global TrampolineX283
.global TrampolineX284
.global TrampolineX285
.global TrampolineX286
.global TrampolineX287
.global TrampolineX288
.global TrampolineX289
.global TrampolineX290
.global TrampolineX291
.global TrampolineX292
.global TrampolineX293
.global TrampolineX294
.global TrampolineX295
.global TrampolineX296
.global TrampolineX297
.global TrampolineX298
.global TrampolineX299
.global TrampolineX300
.global TrampolineX301
.global TrampolineX302
.global TrampolineX303
.global TrampolineX304
.global TrampolineX305
.global TrampolineX306
.global TrampolineX307
.global TrampolineX308
.global TrampolineX309
.global TrampolineX310
.global TrampolineX311
.global TrampolineX312
.global TrampolineX313
.global TrampolineX314
.global TrampolineX315
.global TrampolineX316
.global TrampolineX317
.global TrampolineX318
.global TrampolineX319
.global TrampolineX320
.global TrampolineX321
.global TrampolineX322
.global TrampolineX323
.global TrampolineX324
.global TrampolineX325
.global TrampolineX326
.global TrampolineX327
.global TrampolineX328
.global TrampolineX329
.global TrampolineX330
.global TrampolineX331
.global TrampolineX332
.global TrampolineX333
.global TrampolineX334
.global TrampolineX335
.global TrampolineX336
.global TrampolineX337
.global TrampolineX338
.global TrampolineX339
.global TrampolineX340
.global TrampolineX341
.global TrampolineX342
.global TrampolineX343
.global TrampolineX344
.global TrampolineX345
.global TrampolineX346
.global TrampolineX347
.global TrampolineX348
.global TrampolineX349
.global TrampolineX350
.global TrampolineX351
.global TrampolineX352
.global TrampolineX353
.global TrampolineX354
.global TrampolineX355
.global TrampolineX356
.global TrampolineX357
.global TrampolineX358
.global TrampolineX359
.global TrampolineX360
.global TrampolineX361
.global TrampolineX362
.global TrampolineX363
.global TrampolineX364
.global TrampolineX365
.global TrampolineX366
.global TrampolineX367
.global TrampolineX368
.global TrampolineX369
.global TrampolineX370
.global TrampolineX371
.global TrampolineX372
.global TrampolineX373
.global TrampolineX374
.global TrampolineX375
.global TrampolineX376
.global TrampolineX377
.global TrampolineX378
.global TrampolineX379
.global TrampolineX380
.global TrampolineX381
.global TrampolineX382
.global TrampolineX383
.global TrampolineX384
.global TrampolineX385
.global TrampolineX386
.global TrampolineX387
.global TrampolineX388
.global TrampolineX389
.global TrampolineX390
.global TrampolineX391
.global TrampolineX392
.global TrampolineX393
.global TrampolineX394
.global TrampolineX395
.global TrampolineX396
.global TrampolineX397
.global TrampolineX398
.global TrampolineX399
.global TrampolineX400
.global TrampolineX401
.global TrampolineX402
.global TrampolineX403
.global TrampolineX404
.global TrampolineX405
.global TrampolineX406
.global TrampolineX407
.global TrampolineX408
.global TrampolineX409
.global TrampolineX410
.global TrampolineX411
.global TrampolineX412
.global TrampolineX413
.global TrampolineX414
.global TrampolineX415
.global TrampolineX416
.global TrampolineX417
.global TrampolineX418
.global TrampolineX419
.global TrampolineX420
.global TrampolineX421
.global TrampolineX422
.global TrampolineX423
.global TrampolineX424
.global TrampolineX425
.global TrampolineX426
.global TrampolineX427
.global TrampolineX428
.global TrampolineX429
.global TrampolineX430
.global TrampolineX431
.global TrampolineX432
.global TrampolineX433
.global TrampolineX434
.global TrampolineX435
.global TrampolineX436
.global TrampolineX437
.global TrampolineX438
.global TrampolineX439
.global TrampolineX440
.global TrampolineX441
.global TrampolineX442
.global TrampolineX443
.global TrampolineX444
.global TrampolineX445
.global TrampolineX446
.global TrampolineX447
.global TrampolineX448
.global TrampolineX449
.global TrampolineX450
.global TrampolineX451
.global TrampolineX452
.global TrampolineX453
.global TrampolineX454
.global TrampolineX455
.global TrampolineX456
.global TrampolineX457
.global TrampolineX458
.global TrampolineX459
.global TrampolineX460
.global TrampolineX461
.global TrampolineX462
.global TrampolineX463
.global TrampolineX464
.global TrampolineX465
.global TrampolineX466
.global TrampolineX467
.global TrampolineX468
.global TrampolineX469
.global TrampolineX470
.global TrampolineX471
.global TrampolineX472
.global TrampolineX473
.global TrampolineX474
.global TrampolineX475
.global TrampolineX476
.global TrampolineX477
.global TrampolineX478
.global TrampolineX479
.global TrampolineX480
.global TrampolineX481
.global TrampolineX482
.global TrampolineX483
.global TrampolineX484
.global TrampolineX485
.global TrampolineX486
.global TrampolineX487
.global TrampolineX488
.global TrampolineX489
.global TrampolineX490
.global TrampolineX491
.global TrampolineX492
.global TrampolineX493
.global TrampolineX494
.global TrampolineX495
.global TrampolineX496
.global TrampolineX497
.global TrampolineX498
.global TrampolineX499
.global TrampolineX500
.global TrampolineX501
.global TrampolineX502
.global TrampolineX503
.global TrampolineX504
.global TrampolineX505
.global TrampolineX506
.global TrampolineX507
.global TrampolineX508
.global TrampolineX509
.global TrampolineX510
.global TrampolineX511
.global TrampolineX512
.global TrampolineX513
.global TrampolineX514
.global TrampolineX515
.global TrampolineX516
.global TrampolineX517
.global TrampolineX518
.global TrampolineX519
.global TrampolineX520
.global TrampolineX521
.global TrampolineX522
.global TrampolineX523
.global TrampolineX524
.global TrampolineX525
.global TrampolineX526
.global TrampolineX527
.global TrampolineX528
.global TrampolineX529
.global TrampolineX530
.global TrampolineX531
.global TrampolineX532
.global TrampolineX533
.global TrampolineX534
.global TrampolineX535
.global TrampolineX536
.global TrampolineX537
.global TrampolineX538
.global TrampolineX539
.global TrampolineX540
.global TrampolineX541
.global TrampolineX542
.global TrampolineX543
.global TrampolineX544
.global TrampolineX545
.global TrampolineX546
.global TrampolineX547
.global TrampolineX548
.global TrampolineX549
.global TrampolineX550
.global TrampolineX551
.global TrampolineX552
.global TrampolineX553
.global TrampolineX554
.global TrampolineX555
.global TrampolineX556
.global TrampolineX557
.global TrampolineX558
.global TrampolineX559
.global TrampolineX560
.global TrampolineX561
.global TrampolineX562
.global TrampolineX563
.global TrampolineX564
.global TrampolineX565
.global TrampolineX566
.global TrampolineX567
.global TrampolineX568
.global TrampolineX569
.global TrampolineX570
.global TrampolineX571
.global TrampolineX572
.global TrampolineX573
.global TrampolineX574
.global TrampolineX575
.global TrampolineX576
.global TrampolineX577
.global TrampolineX578
.global TrampolineX579
.global TrampolineX580
.global TrampolineX581
.global TrampolineX582
.global TrampolineX583
.global TrampolineX584
.global TrampolineX585
.global TrampolineX586
.global TrampolineX587
.global TrampolineX588
.global TrampolineX589
.global TrampolineX590
.global TrampolineX591
.global TrampolineX592
.global TrampolineX593
.global TrampolineX594
.global TrampolineX595
.global TrampolineX596
.global TrampolineX597
.global TrampolineX598
.global TrampolineX599
.global TrampolineX600
.global TrampolineX601
.global TrampolineX602
.global TrampolineX603
.global TrampolineX604
.global TrampolineX605
.global TrampolineX606
.global TrampolineX607
.global TrampolineX608
.global TrampolineX609
.global TrampolineX610
.global TrampolineX611
.global TrampolineX612
.global TrampolineX613
.global TrampolineX614
.global TrampolineX615
.global TrampolineX616
.global TrampolineX617
.global TrampolineX618
.global TrampolineX619
.global TrampolineX620
.global TrampolineX621
.global TrampolineX622
.global TrampolineX623
.global TrampolineX624
.global TrampolineX625
.global TrampolineX626
.global TrampolineX627
.global TrampolineX628
.global TrampolineX629
.global TrampolineX630
.global TrampolineX631
.global TrampolineX632
.global TrampolineX633
.global TrampolineX634
.global TrampolineX635
.global TrampolineX636
.global TrampolineX637
.global TrampolineX638
.global TrampolineX639
.global TrampolineX640
.global TrampolineX641
.global TrampolineX642
.global TrampolineX643
.global TrampolineX644
.global TrampolineX645
.global TrampolineX646
.global TrampolineX647
.global TrampolineX648
.global TrampolineX649
.global TrampolineX650
.global TrampolineX651
.global TrampolineX652
.global TrampolineX653
.global TrampolineX654
.global TrampolineX655
.global TrampolineX656
.global TrampolineX657
.global TrampolineX658
.global TrampolineX659
.global TrampolineX660
.global TrampolineX661
.global TrampolineX662
.global TrampolineX663
.global TrampolineX664
.global TrampolineX665
.global TrampolineX666
.global TrampolineX667
.global TrampolineX668
.global TrampolineX669
.global TrampolineX670
.global TrampolineX671
.global TrampolineX672
.global TrampolineX673
.global TrampolineX674
.global TrampolineX675
.global TrampolineX676
.global TrampolineX677
.global TrampolineX678
.global TrampolineX679
.global TrampolineX680
.global TrampolineX681
.global TrampolineX682
.global TrampolineX683
.global TrampolineX684
.global TrampolineX685
.global TrampolineX686
.global TrampolineX687
.global TrampolineX688
.global TrampolineX689
.global TrampolineX690
.global TrampolineX691
.global TrampolineX692
.global TrampolineX693
.global TrampolineX694
.global TrampolineX695
.global TrampolineX696
.global TrampolineX697
.global TrampolineX698
.global TrampolineX699
.global TrampolineX700
.global TrampolineX701
.global TrampolineX702
.global TrampolineX703
.global TrampolineX704
.global TrampolineX705
.global TrampolineX706
.global TrampolineX707
.global TrampolineX708
.global TrampolineX709
.global TrampolineX710
.global TrampolineX711
.global TrampolineX712
.global TrampolineX713
.global TrampolineX714
.global TrampolineX715
.global TrampolineX716
.global TrampolineX717
.global TrampolineX718
.global TrampolineX719
.global TrampolineX720
.global TrampolineX721
.global TrampolineX722
.global TrampolineX723
.global TrampolineX724
.global TrampolineX725
.global TrampolineX726
.global TrampolineX727
.global TrampolineX728
.global TrampolineX729
.global TrampolineX730
.global TrampolineX731
.global TrampolineX732
.global TrampolineX733
.global TrampolineX734
.global TrampolineX735
.global TrampolineX736
.global TrampolineX737
.global TrampolineX738
.global TrampolineX739
.global TrampolineX740
.global TrampolineX741
.global TrampolineX742
.global TrampolineX743
.global TrampolineX744
.global TrampolineX745
.global TrampolineX746
.global TrampolineX747
.global TrampolineX748
.global TrampolineX749
.global TrampolineX750
.global TrampolineX751
.global TrampolineX752
.global TrampolineX753
.global TrampolineX754
.global TrampolineX755
.global TrampolineX756
.global TrampolineX757
.global TrampolineX758
.global TrampolineX759
.global TrampolineX760
.global TrampolineX761
.global TrampolineX762
.global TrampolineX763
.global TrampolineX764
.global TrampolineX765
.global TrampolineX766
.global TrampolineX767
.global TrampolineX768
.global TrampolineX769
.global TrampolineX770
.global TrampolineX771
.global TrampolineX772
.global TrampolineX773
.global TrampolineX774
.global TrampolineX775
.global TrampolineX776
.global TrampolineX777
.global TrampolineX778
.global TrampolineX779
.global TrampolineX780
.global TrampolineX781
.global TrampolineX782
.global TrampolineX783
.global TrampolineX784
.global TrampolineX785
.global TrampolineX786
.global TrampolineX787
.global TrampolineX788
.global TrampolineX789
.global TrampolineX790
.global TrampolineX791
.global TrampolineX792
.global TrampolineX793
.global TrampolineX794
.global TrampolineX795
.global TrampolineX796
.global TrampolineX797
.global TrampolineX798
.global TrampolineX799
.global TrampolineX800
.global TrampolineX801
.global TrampolineX802
.global TrampolineX803
.global TrampolineX804
.global TrampolineX805
.global TrampolineX806
.global TrampolineX807
.global TrampolineX808
.global TrampolineX809
.global TrampolineX810
.global TrampolineX811
.global TrampolineX812
.global TrampolineX813
.global TrampolineX814
.global TrampolineX815
.global TrampolineX816
.global TrampolineX817
.global TrampolineX818
.global TrampolineX819
.global TrampolineX820
.global TrampolineX821
.global TrampolineX822
.global TrampolineX823
.global TrampolineX824
.global TrampolineX825
.global TrampolineX826
.global TrampolineX827
.global TrampolineX828
.global TrampolineX829
.global TrampolineX830
.global TrampolineX831
.global TrampolineX832
.global TrampolineX833
.global TrampolineX834
.global TrampolineX835
.global TrampolineX836
.global TrampolineX837
.global TrampolineX838
.global TrampolineX839
.global TrampolineX840
.global TrampolineX841
.global TrampolineX842
.global TrampolineX843
.global TrampolineX844
.global TrampolineX845
.global TrampolineX846
.global TrampolineX847
.global TrampolineX848
.global TrampolineX849
.global TrampolineX850
.global TrampolineX851
.global TrampolineX852
.global TrampolineX853
.global TrampolineX854
.global TrampolineX855
.global TrampolineX856
.global TrampolineX857
.global TrampolineX858
.global TrampolineX859
.global TrampolineX860
.global TrampolineX861
.global TrampolineX862
.global TrampolineX863
.global TrampolineX864
.global TrampolineX865
.global TrampolineX866
.global TrampolineX867
.global TrampolineX868
.global TrampolineX869
.global TrampolineX870
.global TrampolineX871
.global TrampolineX872
.global TrampolineX873
.global TrampolineX874
.global TrampolineX875
.global TrampolineX876
.global TrampolineX877
.global TrampolineX878
.global TrampolineX879
.global TrampolineX880
.global TrampolineX881
.global TrampolineX882
.global TrampolineX883
.global TrampolineX884
.global TrampolineX885
.global TrampolineX886
.global TrampolineX887
.global TrampolineX888
.global TrampolineX889
.global TrampolineX890
.global TrampolineX891
.global TrampolineX892
.global TrampolineX893
.global TrampolineX894
.global TrampolineX895
.global TrampolineX896
.global TrampolineX897
.global TrampolineX898
.global TrampolineX899
.global TrampolineX900
.global TrampolineX901
.global TrampolineX902
.global TrampolineX903
.global TrampolineX904
.global TrampolineX905
.global TrampolineX906
.global TrampolineX907
.global TrampolineX908
.global TrampolineX909
.global TrampolineX910
.global TrampolineX911
.global TrampolineX912
.global TrampolineX913
.global TrampolineX914
.global TrampolineX915
.global TrampolineX916
.global TrampolineX917
.global TrampolineX918
.global TrampolineX919
.global TrampolineX920
.global TrampolineX921
.global TrampolineX922
.global TrampolineX923
.global TrampolineX924
.global TrampolineX925
.global TrampolineX926
.global TrampolineX927
.global TrampolineX928
.global TrampolineX929
.global TrampolineX930
.global TrampolineX931
.global TrampolineX932
.global TrampolineX933
.global TrampolineX934
.global TrampolineX935
.global TrampolineX936
.global TrampolineX937
.global TrampolineX938
.global TrampolineX939
.global TrampolineX940
.global TrampolineX941
.global TrampolineX942
.global TrampolineX943
.global TrampolineX944
.global TrampolineX945
.global TrampolineX946
.global TrampolineX947
.global TrampolineX948
.global TrampolineX949
.global TrampolineX950
.global TrampolineX951
.global TrampolineX952
.global TrampolineX953
.global TrampolineX954
.global TrampolineX955
.global TrampolineX956
.global TrampolineX957
.global TrampolineX958
.global TrampolineX959
.global TrampolineX960
.global TrampolineX961
.global TrampolineX962
.global TrampolineX963
.global TrampolineX964
.global TrampolineX965
.global TrampolineX966
.global TrampolineX967
.global TrampolineX968
.global TrampolineX969
.global TrampolineX970
.global TrampolineX971
.global TrampolineX972
.global TrampolineX973
.global TrampolineX974
.global TrampolineX975
.global TrampolineX976
.global TrampolineX977
.global TrampolineX978
.global TrampolineX979
.global TrampolineX980
.global TrampolineX981
.global TrampolineX982
.global TrampolineX983
.global TrampolineX984
.global TrampolineX985
.global TrampolineX986
.global TrampolineX987
.global TrampolineX988
.global TrampolineX989
.global TrampolineX990
.global TrampolineX991
.global TrampolineX992
.global TrampolineX993
.global TrampolineX994
.global TrampolineX995
.global TrampolineX996
.global TrampolineX997
.global TrampolineX998
.global TrampolineX999
.global TrampolineX1000
.global TrampolineX1001
.global TrampolineX1002
.global TrampolineX1003
.global TrampolineX1004
.global TrampolineX1005
.global TrampolineX1006
.global TrampolineX1007
.global TrampolineX1008
.global TrampolineX1009
.global TrampolineX1010
.global TrampolineX1011
.global TrampolineX1012
.global TrampolineX1013
.global TrampolineX1014
.global TrampolineX1015
.global TrampolineX1016
.global TrampolineX1017
.global TrampolineX1018
.global TrampolineX1019
.global TrampolineX1020
.global TrampolineX1021
.global TrampolineX1022
.global TrampolineX1023

Trampoline0:
    trampoline 0
Trampoline1:
    trampoline 1
Trampoline2:
    trampoline 2
Trampoline3:
    trampoline 3
Trampoline4:
    trampoline 4
Trampoline5:
    trampoline 5
Trampoline6:
    trampoline 6
Trampoline7:
    trampoline 7
Trampoline8:
    trampoline 8
Trampoline9:
    trampoline 9
Trampoline10:
    trampoline 10
Trampoline11:
    trampoline 11
Trampoline12:
    trampoline 12
Trampoline13:
    trampoline 13
Trampoline14:
    trampoline 14
Trampoline15:
    trampoline 15
Trampoline16:
    trampoline 16
Trampoline17:
    trampoline 17
Trampoline18:
    trampoline 18
Trampoline19:
    trampoline 19
Trampoline20:
    trampoline 20
Trampoline21:
    trampoline 21
Trampoline22:
    trampoline 22
Trampoline23:
    trampoline 23
Trampoline24:
    trampoline 24
Trampoline25:
    trampoline 25
Trampoline26:
    trampoline 26
Trampoline27:
    trampoline 27
Trampoline28:
    trampoline 28
Trampoline29:
    trampoline 29
Trampoline30:
    trampoline 30
Trampoline31:
    trampoline 31
Trampoline32:
    trampoline 32
Trampoline33:
    trampoline 33
Trampoline34:
    trampoline 34
Trampoline35:
    trampoline 35
Trampoline36:
    trampoline 36
Trampoline37:
    trampoline 37
Trampoline38:
    trampoline 38
Trampoline39:
    trampoline 39
Trampoline40:
    trampoline 40
Trampoline41:
    trampoline 41
Trampoline42:
    trampoline 42
Trampoline43:
    trampoline 43
Trampoline44:
    trampoline 44
Trampoline45:
    trampoline 45
Trampoline46:
    trampoline 46
Trampoline47:
    trampoline 47
Trampoline48:
    trampoline 48
Trampoline49:
    trampoline 49
Trampoline50:
    trampoline 50
Trampoline51:
    trampoline 51
Trampoline52:
    trampoline 52
Trampoline53:
    trampoline 53
Trampoline54:
    trampoline 54
Trampoline55:
    trampoline 55
Trampoline56:
    trampoline 56
Trampoline57:
    trampoline 57
Trampoline58:
    trampoline 58
Trampoline59:
    trampoline 59
Trampoline60:
    trampoline 60
Trampoline61:
    trampoline 61
Trampoline62:
    trampoline 62
Trampoline63:
    trampoline 63
Trampoline64:
    trampoline 64
Trampoline65:
    trampoline 65
Trampoline66:
    trampoline 66
Trampoline67:
    trampoline 67
Trampoline68:
    trampoline 68
Trampoline69:
    trampoline 69
Trampoline70:
    trampoline 70
Trampoline71:
    trampoline 71
Trampoline72:
    trampoline 72
Trampoline73:
    trampoline 73
Trampoline74:
    trampoline 74
Trampoline75:
    trampoline 75
Trampoline76:
    trampoline 76
Trampoline77:
    trampoline 77
Trampoline78:
    trampoline 78
Trampoline79:
    trampoline 79
Trampoline80:
    trampoline 80
Trampoline81:
    trampoline 81
Trampoline82:
    trampoline 82
Trampoline83:
    trampoline 83
Trampoline84:
    trampoline 84
Trampoline85:
    trampoline 85
Trampoline86:
    trampoline 86
Trampoline87:
    trampoline 87
Trampoline88:
    trampoline 88
Trampoline89:
    trampoline 89
Trampoline90:
    trampoline 90
Trampoline91:
    trampoline 91
Trampoline92:
    trampoline 92
Trampoline93:
    trampoline 93
Trampoline94:
    trampoline 94
Trampoline95:
    trampoline 95
Trampoline96:
    trampoline 96
Trampoline97:
    trampoline 97
Trampoline98:
    trampoline 98
Trampoline99:
    trampoline 99
Trampoline100:
    trampoline 100
Trampoline101:
    trampoline 101
Trampoline102:
    trampoline 102
Trampoline103:
    trampoline 103
Trampoline104:
    trampoline 104
Trampoline105:
    trampoline 105
Trampoline106:
    trampoline 106
Trampoline107:
    trampoline 107
Trampoline108:
    trampoline 108
Trampoline109:
    trampoline 109
Trampoline110:
    trampoline 110
Trampoline111:
    trampoline 111
Trampoline112:
    trampoline 112
Trampoline113:
    trampoline 113
Trampoline114:
    trampoline 114
Trampoline115:
    trampoline 115
Trampoline116:
    trampoline 116
Trampoline117:
    trampoline 117
Trampoline118:
    trampoline 118
Trampoline119:
    trampoline 119
Trampoline120:
    trampoline 120
Trampoline121:
    trampoline 121
Trampoline122:
    trampoline 122
Trampoline123:
    trampoline 123
Trampoline124:
    trampoline 124
Trampoline125:
    trampoline 125
Trampoline126:
    trampoline 126
Trampoline127:
    trampoline 127
Trampoline128:
    trampoline 128
Trampoline129:
    trampoline 129
Trampoline130:
    trampoline 130
Trampoline131:
    trampoline 131
Trampoline132:
    trampoline 132
Trampoline133:
    trampoline 133
Trampoline134:
    trampoline 134
Trampoline135:
    trampoline 135
Trampoline136:
    trampoline 136
Trampoline137:
    trampoline 137
Trampoline138:
    trampoline 138
Trampoline139:
    trampoline 139
Trampoline140:
    trampoline 140
Trampoline141:
    trampoline 141
Trampoline142:
    trampoline 142
Trampoline143:
    trampoline 143
Trampoline144:
    trampoline 144
Trampoline145:
    trampoline 145
Trampoline146:
    trampoline 146
Trampoline147:
    trampoline 147
Trampoline148:
    trampoline 148
Trampoline149:
    trampoline 149
Trampoline150:
    trampoline 150
Trampoline151:
    trampoline 151
Trampoline152:
    trampoline 152
Trampoline153:
    trampoline 153
Trampoline154:
    trampoline 154
Trampoline155:
    trampoline 155
Trampoline156:
    trampoline 156
Trampoline157:
    trampoline 157
Trampoline158:
    trampoline 158
Trampoline159:
    trampoline 159
Trampoline160:
    trampoline 160
Trampoline161:
    trampoline 161
Trampoline162:
    trampoline 162
Trampoline163:
    trampoline 163
Trampoline164:
    trampoline 164
Trampoline165:
    trampoline 165
Trampoline166:
    trampoline 166
Trampoline167:
    trampoline 167
Trampoline168:
    trampoline 168
Trampoline169:
    trampoline 169
Trampoline170:
    trampoline 170
Trampoline171:
    trampoline 171
Trampoline172:
    trampoline 172
Trampoline173:
    trampoline 173
Trampoline174:
    trampoline 174
Trampoline175:
    trampoline 175
Trampoline176:
    trampoline 176
Trampoline177:
    trampoline 177
Trampoline178:
    trampoline 178
Trampoline179:
    trampoline 179
Trampoline180:
    trampoline 180
Trampoline181:
    trampoline 181
Trampoline182:
    trampoline 182
Trampoline183:
    trampoline 183
Trampoline184:
    trampoline 184
Trampoline185:
    trampoline 185
Trampoline186:
    trampoline 186
Trampoline187:
    trampoline 187
Trampoline188:
    trampoline 188
Trampoline189:
    trampoline 189
Trampoline190:
    trampoline 190
Trampoline191:
    trampoline 191
Trampoline192:
    trampoline 192
Trampoline193:
    trampoline 193
Trampoline194:
    trampoline 194
Trampoline195:
    trampoline 195
Trampoline196:
    trampoline 196
Trampoline197:
    trampoline 197
Trampoline198:
    trampoline 198
Trampoline199:
    trampoline 199
Trampoline200:
    trampoline 200
Trampoline201:
    trampoline 201
Trampoline202:
    trampoline 202
Trampoline203:
    trampoline 203
Trampoline204:
    trampoline 204
Trampoline205:
    trampoline 205
Trampoline206:
    trampoline 206
Trampoline207:
    trampoline 207
Trampoline208:
    trampoline 208
Trampoline209:
    trampoline 209
Trampoline210:
    trampoline 210
Trampoline211:
    trampoline 211
Trampoline212:
    trampoline 212
Trampoline213:
    trampoline 213
Trampoline214:
    trampoline 214
Trampoline215:
    trampoline 215
Trampoline216:
    trampoline 216
Trampoline217:
    trampoline 217
Trampoline218:
    trampoline 218
Trampoline219:
    trampoline 219
Trampoline220:
    trampoline 220
Trampoline221:
    trampoline 221
Trampoline222:
    trampoline 222
Trampoline223:
    trampoline 223
Trampoline224:
    trampoline 224
Trampoline225:
    trampoline 225
Trampoline226:
    trampoline 226
Trampoline227:
    trampoline 227
Trampoline228:
    trampoline 228
Trampoline229:
    trampoline 229
Trampoline230:
    trampoline 230
Trampoline231:
    trampoline 231
Trampoline232:
    trampoline 232
Trampoline233:
    trampoline 233
Trampoline234:
    trampoline 234
Trampoline235:
    trampoline 235
Trampoline236:
    trampoline 236
Trampoline237:
    trampoline 237
Trampoline238:
    trampoline 238
Trampoline239:
    trampoline 239
Trampoline240:
    trampoline 240
Trampoline241:
    trampoline 241
Trampoline242:
    trampoline 242
Trampoline243:
    trampoline 243
Trampoline244:
    trampoline 244
Trampoline245:
    trampoline 245
Trampoline246:
    trampoline 246
Trampoline247:
    trampoline 247
Trampoline248:
    trampoline 248
Trampoline249:
    trampoline 249
Trampoline250:
    trampoline 250
Trampoline251:
    trampoline 251
Trampoline252:
    trampoline 252
Trampoline253:
    trampoline 253
Trampoline254:
    trampoline 254
Trampoline255:
    trampoline 255
Trampoline256:
    trampoline 256
Trampoline257:
    trampoline 257
Trampoline258:
    trampoline 258
Trampoline259:
    trampoline 259
Trampoline260:
    trampoline 260
Trampoline261:
    trampoline 261
Trampoline262:
    trampoline 262
Trampoline263:
    trampoline 263
Trampoline264:
    trampoline 264
Trampoline265:
    trampoline 265
Trampoline266:
    trampoline 266
Trampoline267:
    trampoline 267
Trampoline268:
    trampoline 268
Trampoline269:
    trampoline 269
Trampoline270:
    trampoline 270
Trampoline271:
    trampoline 271
Trampoline272:
    trampoline 272
Trampoline273:
    trampoline 273
Trampoline274:
    trampoline 274
Trampoline275:
    trampoline 275
Trampoline276:
    trampoline 276
Trampoline277:
    trampoline 277
Trampoline278:
    trampoline 278
Trampoline279:
    trampoline 279
Trampoline280:
    trampoline 280
Trampoline281:
    trampoline 281
Trampoline282:
    trampoline 282
Trampoline283:
    trampoline 283
Trampoline284:
    trampoline 284
Trampoline285:
    trampoline 285
Trampoline286:
    trampoline 286
Trampoline287:
    trampoline 287
Trampoline288:
    trampoline 288
Trampoline289:
    trampoline 289
Trampoline290:
    trampoline 290
Trampoline291:
    trampoline 291
Trampoline292:
    trampoline 292
Trampoline293:
    trampoline 293
Trampoline294:
    trampoline 294
Trampoline295:
    trampoline 295
Trampoline296:
    trampoline 296
Trampoline297:
    trampoline 297
Trampoline298:
    trampoline 298
Trampoline299:
    trampoline 299
Trampoline300:
    trampoline 300
Trampoline301:
    trampoline 301
Trampoline302:
    trampoline 302
Trampoline303:
    trampoline 303
Trampoline304:
    trampoline 304
Trampoline305:
    trampoline 305
Trampoline306:
    trampoline 306
Trampoline307:
    trampoline 307
Trampoline308:
    trampoline 308
Trampoline309:
    trampoline 309
Trampoline310:
    trampoline 310
Trampoline311:
    trampoline 311
Trampoline312:
    trampoline 312
Trampoline313:
    trampoline 313
Trampoline314:
    trampoline 314
Trampoline315:
    trampoline 315
Trampoline316:
    trampoline 316
Trampoline317:
    trampoline 317
Trampoline318:
    trampoline 318
Trampoline319:
    trampoline 319
Trampoline320:
    trampoline 320
Trampoline321:
    trampoline 321
Trampoline322:
    trampoline 322
Trampoline323:
    trampoline 323
Trampoline324:
    trampoline 324
Trampoline325:
    trampoline 325
Trampoline326:
    trampoline 326
Trampoline327:
    trampoline 327
Trampoline328:
    trampoline 328
Trampoline329:
    trampoline 329
Trampoline330:
    trampoline 330
Trampoline331:
    trampoline 331
Trampoline332:
    trampoline 332
Trampoline333:
    trampoline 333
Trampoline334:
    trampoline 334
Trampoline335:
    trampoline 335
Trampoline336:
    trampoline 336
Trampoline337:
    trampoline 337
Trampoline338:
    trampoline 338
Trampoline339:
    trampoline 339
Trampoline340:
    trampoline 340
Trampoline341:
    trampoline 341
Trampoline342:
    trampoline 342
Trampoline343:
    trampoline 343
Trampoline344:
    trampoline 344
Trampoline345:
    trampoline 345
Trampoline346:
    trampoline 346
Trampoline347:
    trampoline 347
Trampoline348:
    trampoline 348
Trampoline349:
    trampoline 349
Trampoline350:
    trampoline 350
Trampoline351:
    trampoline 351
Trampoline352:
    trampoline 352
Trampoline353:
    trampoline 353
Trampoline354:
    trampoline 354
Trampoline355:
    trampoline 355
Trampoline356:
    trampoline 356
Trampoline357:
    trampoline 357
Trampoline358:
    trampoline 358
Trampoline359:
    trampoline 359
Trampoline360:
    trampoline 360
Trampoline361:
    trampoline 361
Trampoline362:
    trampoline 362
Trampoline363:
    trampoline 363
Trampoline364:
    trampoline 364
Trampoline365:
    trampoline 365
Trampoline366:
    trampoline 366
Trampoline367:
    trampoline 367
Trampoline368:
    trampoline 368
Trampoline369:
    trampoline 369
Trampoline370:
    trampoline 370
Trampoline371:
    trampoline 371
Trampoline372:
    trampoline 372
Trampoline373:
    trampoline 373
Trampoline374:
    trampoline 374
Trampoline375:
    trampoline 375
Trampoline376:
    trampoline 376
Trampoline377:
    trampoline 377
Trampoline378:
    trampoline 378
Trampoline379:
    trampoline 379
Trampoline380:
    trampoline 380
Trampoline381:
    trampoline 381
Trampoline382:
    trampoline 382
Trampoline383:
    trampoline 383
Trampoline384:
    trampoline 384
Trampoline385:
    trampoline 385
Trampoline386:
    trampoline 386
Trampoline387:
    trampoline 387
Trampoline388:
    trampoline 388
Trampoline389:
    trampoline 389
Trampoline390:
    trampoline 390
Trampoline391:
    trampoline 391
Trampoline392:
    trampoline 392
Trampoline393:
    trampoline 393
Trampoline394:
    trampoline 394
Trampoline395:
    trampoline 395
Trampoline396:
    trampoline 396
Trampoline397:
    trampoline 397
Trampoline398:
    trampoline 398
Trampoline399:
    trampoline 399
Trampoline400:
    trampoline 400
Trampoline401:
    trampoline 401
Trampoline402:
    trampoline 402
Trampoline403:
    trampoline 403
Trampoline404:
    trampoline 404
Trampoline405:
    trampoline 405
Trampoline406:
    trampoline 406
Trampoline407:
    trampoline 407
Trampoline408:
    trampoline 408
Trampoline409:
    trampoline 409
Trampoline410:
    trampoline 410
Trampoline411:
    trampoline 411
Trampoline412:
    trampoline 412
Trampoline413:
    trampoline 413
Trampoline414:
    trampoline 414
Trampoline415:
    trampoline 415
Trampoline416:
    trampoline 416
Trampoline417:
    trampoline 417
Trampoline418:
    trampoline 418
Trampoline419:
    trampoline 419
Trampoline420:
    trampoline 420
Trampoline421:
    trampoline 421
Trampoline422:
    trampoline 422
Trampoline423:
    trampoline 423
Trampoline424:
    trampoline 424
Trampoline425:
    trampoline 425
Trampoline426:
    trampoline 426
Trampoline427:
    trampoline 427
Trampoline428:
    trampoline 428
Trampoline429:
    trampoline 429
Trampoline430:
    trampoline 430
Trampoline431:
    trampoline 431
Trampoline432:
    trampoline 432
Trampoline433:
    trampoline 433
Trampoline434:
    trampoline 434
Trampoline435:
    trampoline 435
Trampoline436:
    trampoline 436
Trampoline437:
    trampoline 437
Trampoline438:
    trampoline 438
Trampoline439:
    trampoline 439
Trampoline440:
    trampoline 440
Trampoline441:
    trampoline 441
Trampoline442:
    trampoline 442
Trampoline443:
    trampoline 443
Trampoline444:
    trampoline 444
Trampoline445:
    trampoline 445
Trampoline446:
    trampoline 446
Trampoline447:
    trampoline 447
Trampoline448:
    trampoline 448
Trampoline449:
    trampoline 449
Trampoline450:
    trampoline 450
Trampoline451:
    trampoline 451
Trampoline452:
    trampoline 452
Trampoline453:
    trampoline 453
Trampoline454:
    trampoline 454
Trampoline455:
    trampoline 455
Trampoline456:
    trampoline 456
Trampoline457:
    trampoline 457
Trampoline458:
    trampoline 458
Trampoline459:
    trampoline 459
Trampoline460:
    trampoline 460
Trampoline461:
    trampoline 461
Trampoline462:
    trampoline 462
Trampoline463:
    trampoline 463
Trampoline464:
    trampoline 464
Trampoline465:
    trampoline 465
Trampoline466:
    trampoline 466
Trampoline467:
    trampoline 467
Trampoline468:
    trampoline 468
Trampoline469:
    trampoline 469
Trampoline470:
    trampoline 470
Trampoline471:
    trampoline 471
Trampoline472:
    trampoline 472
Trampoline473:
    trampoline 473
Trampoline474:
    trampoline 474
Trampoline475:
    trampoline 475
Trampoline476:
    trampoline 476
Trampoline477:
    trampoline 477
Trampoline478:
    trampoline 478
Trampoline479:
    trampoline 479
Trampoline480:
    trampoline 480
Trampoline481:
    trampoline 481
Trampoline482:
    trampoline 482
Trampoline483:
    trampoline 483
Trampoline484:
    trampoline 484
Trampoline485:
    trampoline 485
Trampoline486:
    trampoline 486
Trampoline487:
    trampoline 487
Trampoline488:
    trampoline 488
Trampoline489:
    trampoline 489
Trampoline490:
    trampoline 490
Trampoline491:
    trampoline 491
Trampoline492:
    trampoline 492
Trampoline493:
    trampoline 493
Trampoline494:
    trampoline 494
Trampoline495:
    trampoline 495
Trampoline496:
    trampoline 496
Trampoline497:
    trampoline 497
Trampoline498:
    trampoline 498
Trampoline499:
    trampoline 499
Trampoline500:
    trampoline 500
Trampoline501:
    trampoline 501
Trampoline502:
    trampoline 502
Trampoline503:
    trampoline 503
Trampoline504:
    trampoline 504
Trampoline505:
    trampoline 505
Trampoline506:
    trampoline 506
Trampoline507:
    trampoline 507
Trampoline508:
    trampoline 508
Trampoline509:
    trampoline 509
Trampoline510:
    trampoline 510
Trampoline511:
    trampoline 511
Trampoline512:
    trampoline 512
Trampoline513:
    trampoline 513
Trampoline514:
    trampoline 514
Trampoline515:
    trampoline 515
Trampoline516:
    trampoline 516
Trampoline517:
    trampoline 517
Trampoline518:
    trampoline 518
Trampoline519:
    trampoline 519
Trampoline520:
    trampoline 520
Trampoline521:
    trampoline 521
Trampoline522:
    trampoline 522
Trampoline523:
    trampoline 523
Trampoline524:
    trampoline 524
Trampoline525:
    trampoline 525
Trampoline526:
    trampoline 526
Trampoline527:
    trampoline 527
Trampoline528:
    trampoline 528
Trampoline529:
    trampoline 529
Trampoline530:
    trampoline 530
Trampoline531:
    trampoline 531
Trampoline532:
    trampoline 532
Trampoline533:
    trampoline 533
Trampoline534:
    trampoline 534
Trampoline535:
    trampoline 535
Trampoline536:
    trampoline 536
Trampoline537:
    trampoline 537
Trampoline538:
    trampoline 538
Trampoline539:
    trampoline 539
Trampoline540:
    trampoline 540
Trampoline541:
    trampoline 541
Trampoline542:
    trampoline 542
Trampoline543:
    trampoline 543
Trampoline544:
    trampoline 544
Trampoline545:
    trampoline 545
Trampoline546:
    trampoline 546
Trampoline547:
    trampoline 547
Trampoline548:
    trampoline 548
Trampoline549:
    trampoline 549
Trampoline550:
    trampoline 550
Trampoline551:
    trampoline 551
Trampoline552:
    trampoline 552
Trampoline553:
    trampoline 553
Trampoline554:
    trampoline 554
Trampoline555:
    trampoline 555
Trampoline556:
    trampoline 556
Trampoline557:
    trampoline 557
Trampoline558:
    trampoline 558
Trampoline559:
    trampoline 559
Trampoline560:
    trampoline 560
Trampoline561:
    trampoline 561
Trampoline562:
    trampoline 562
Trampoline563:
    trampoline 563
Trampoline564:
    trampoline 564
Trampoline565:
    trampoline 565
Trampoline566:
    trampoline 566
Trampoline567:
    trampoline 567
Trampoline568:
    trampoline 568
Trampoline569:
    trampoline 569
Trampoline570:
    trampoline 570
Trampoline571:
    trampoline 571
Trampoline572:
    trampoline 572
Trampoline573:
    trampoline 573
Trampoline574:
    trampoline 574
Trampoline575:
    trampoline 575
Trampoline576:
    trampoline 576
Trampoline577:
    trampoline 577
Trampoline578:
    trampoline 578
Trampoline579:
    trampoline 579
Trampoline580:
    trampoline 580
Trampoline581:
    trampoline 581
Trampoline582:
    trampoline 582
Trampoline583:
    trampoline 583
Trampoline584:
    trampoline 584
Trampoline585:
    trampoline 585
Trampoline586:
    trampoline 586
Trampoline587:
    trampoline 587
Trampoline588:
    trampoline 588
Trampoline589:
    trampoline 589
Trampoline590:
    trampoline 590
Trampoline591:
    trampoline 591
Trampoline592:
    trampoline 592
Trampoline593:
    trampoline 593
Trampoline594:
    trampoline 594
Trampoline595:
    trampoline 595
Trampoline596:
    trampoline 596
Trampoline597:
    trampoline 597
Trampoline598:
    trampoline 598
Trampoline599:
    trampoline 599
Trampoline600:
    trampoline 600
Trampoline601:
    trampoline 601
Trampoline602:
    trampoline 602
Trampoline603:
    trampoline 603
Trampoline604:
    trampoline 604
Trampoline605:
    trampoline 605
Trampoline606:
    trampoline 606
Trampoline607:
    trampoline 607
Trampoline608:
    trampoline 608
Trampoline609:
    trampoline 609
Trampoline610:
    trampoline 610
Trampoline611:
    trampoline 611
Trampoline612:
    trampoline 612
Trampoline613:
    trampoline 613
Trampoline614:
    trampoline 614
Trampoline615:
    trampoline 615
Trampoline616:
    trampoline 616
Trampoline617:
    trampoline 617
Trampoline618:
    trampoline 618
Trampoline619:
    trampoline 619
Trampoline620:
    trampoline 620
Trampoline621:
    trampoline 621
Trampoline622:
    trampoline 622
Trampoline623:
    trampoline 623
Trampoline624:
    trampoline 624
Trampoline625:
    trampoline 625
Trampoline626:
    trampoline 626
Trampoline627:
    trampoline 627
Trampoline628:
    trampoline 628
Trampoline629:
    trampoline 629
Trampoline630:
    trampoline 630
Trampoline631:
    trampoline 631
Trampoline632:
    trampoline 632
Trampoline633:
    trampoline 633
Trampoline634:
    trampoline 634
Trampoline635:
    trampoline 635
Trampoline636:
    trampoline 636
Trampoline637:
    trampoline 637
Trampoline638:
    trampoline 638
Trampoline639:
    trampoline 639
Trampoline640:
    trampoline 640
Trampoline641:
    trampoline 641
Trampoline642:
    trampoline 642
Trampoline643:
    trampoline 643
Trampoline644:
    trampoline 644
Trampoline645:
    trampoline 645
Trampoline646:
    trampoline 646
Trampoline647:
    trampoline 647
Trampoline648:
    trampoline 648
Trampoline649:
    trampoline 649
Trampoline650:
    trampoline 650
Trampoline651:
    trampoline 651
Trampoline652:
    trampoline 652
Trampoline653:
    trampoline 653
Trampoline654:
    trampoline 654
Trampoline655:
    trampoline 655
Trampoline656:
    trampoline 656
Trampoline657:
    trampoline 657
Trampoline658:
    trampoline 658
Trampoline659:
    trampoline 659
Trampoline660:
    trampoline 660
Trampoline661:
    trampoline 661
Trampoline662:
    trampoline 662
Trampoline663:
    trampoline 663
Trampoline664:
    trampoline 664
Trampoline665:
    trampoline 665
Trampoline666:
    trampoline 666
Trampoline667:
    trampoline 667
Trampoline668:
    trampoline 668
Trampoline669:
    trampoline 669
Trampoline670:
    trampoline 670
Trampoline671:
    trampoline 671
Trampoline672:
    trampoline 672
Trampoline673:
    trampoline 673
Trampoline674:
    trampoline 674
Trampoline675:
    trampoline 675
Trampoline676:
    trampoline 676
Trampoline677:
    trampoline 677
Trampoline678:
    trampoline 678
Trampoline679:
    trampoline 679
Trampoline680:
    trampoline 680
Trampoline681:
    trampoline 681
Trampoline682:
    trampoline 682
Trampoline683:
    trampoline 683
Trampoline684:
    trampoline 684
Trampoline685:
    trampoline 685
Trampoline686:
    trampoline 686
Trampoline687:
    trampoline 687
Trampoline688:
    trampoline 688
Trampoline689:
    trampoline 689
Trampoline690:
    trampoline 690
Trampoline691:
    trampoline 691
Trampoline692:
    trampoline 692
Trampoline693:
    trampoline 693
Trampoline694:
    trampoline 694
Trampoline695:
    trampoline 695
Trampoline696:
    trampoline 696
Trampoline697:
    trampoline 697
Trampoline698:
    trampoline 698
Trampoline699:
    trampoline 699
Trampoline700:
    trampoline 700
Trampoline701:
    trampoline 701
Trampoline702:
    trampoline 702
Trampoline703:
    trampoline 703
Trampoline704:
    trampoline 704
Trampoline705:
    trampoline 705
Trampoline706:
    trampoline 706
Trampoline707:
    trampoline 707
Trampoline708:
    trampoline 708
Trampoline709:
    trampoline 709
Trampoline710:
    trampoline 710
Trampoline711:
    trampoline 711
Trampoline712:
    trampoline 712
Trampoline713:
    trampoline 713
Trampoline714:
    trampoline 714
Trampoline715:
    trampoline 715
Trampoline716:
    trampoline 716
Trampoline717:
    trampoline 717
Trampoline718:
    trampoline 718
Trampoline719:
    trampoline 719
Trampoline720:
    trampoline 720
Trampoline721:
    trampoline 721
Trampoline722:
    trampoline 722
Trampoline723:
    trampoline 723
Trampoline724:
    trampoline 724
Trampoline725:
    trampoline 725
Trampoline726:
    trampoline 726
Trampoline727:
    trampoline 727
Trampoline728:
    trampoline 728
Trampoline729:
    trampoline 729
Trampoline730:
    trampoline 730
Trampoline731:
    trampoline 731
Trampoline732:
    trampoline 732
Trampoline733:
    trampoline 733
Trampoline734:
    trampoline 734
Trampoline735:
    trampoline 735
Trampoline736:
    trampoline 736
Trampoline737:
    trampoline 737
Trampoline738:
    trampoline 738
Trampoline739:
    trampoline 739
Trampoline740:
    trampoline 740
Trampoline741:
    trampoline 741
Trampoline742:
    trampoline 742
Trampoline743:
    trampoline 743
Trampoline744:
    trampoline 744
Trampoline745:
    trampoline 745
Trampoline746:
    trampoline 746
Trampoline747:
    trampoline 747
Trampoline748:
    trampoline 748
Trampoline749:
    trampoline 749
Trampoline750:
    trampoline 750
Trampoline751:
    trampoline 751
Trampoline752:
    trampoline 752
Trampoline753:
    trampoline 753
Trampoline754:
    trampoline 754
Trampoline755:
    trampoline 755
Trampoline756:
    trampoline 756
Trampoline757:
    trampoline 757
Trampoline758:
    trampoline 758
Trampoline759:
    trampoline 759
Trampoline760:
    trampoline 760
Trampoline761:
    trampoline 761
Trampoline762:
    trampoline 762
Trampoline763:
    trampoline 763
Trampoline764:
    trampoline 764
Trampoline765:
    trampoline 765
Trampoline766:
    trampoline 766
Trampoline767:
    trampoline 767
Trampoline768:
    trampoline 768
Trampoline769:
    trampoline 769
Trampoline770:
    trampoline 770
Trampoline771:
    trampoline 771
Trampoline772:
    trampoline 772
Trampoline773:
    trampoline 773
Trampoline774:
    trampoline 774
Trampoline775:
    trampoline 775
Trampoline776:
    trampoline 776
Trampoline777:
    trampoline 777
Trampoline778:
    trampoline 778
Trampoline779:
    trampoline 779
Trampoline780:
    trampoline 780
Trampoline781:
    trampoline 781
Trampoline782:
    trampoline 782
Trampoline783:
    trampoline 783
Trampoline784:
    trampoline 784
Trampoline785:
    trampoline 785
Trampoline786:
    trampoline 786
Trampoline787:
    trampoline 787
Trampoline788:
    trampoline 788
Trampoline789:
    trampoline 789
Trampoline790:
    trampoline 790
Trampoline791:
    trampoline 791
Trampoline792:
    trampoline 792
Trampoline793:
    trampoline 793
Trampoline794:
    trampoline 794
Trampoline795:
    trampoline 795
Trampoline796:
    trampoline 796
Trampoline797:
    trampoline 797
Trampoline798:
    trampoline 798
Trampoline799:
    trampoline 799
Trampoline800:
    trampoline 800
Trampoline801:
    trampoline 801
Trampoline802:
    trampoline 802
Trampoline803:
    trampoline 803
Trampoline804:
    trampoline 804
Trampoline805:
    trampoline 805
Trampoline806:
    trampoline 806
Trampoline807:
    trampoline 807
Trampoline808:
    trampoline 808
Trampoline809:
    trampoline 809
Trampoline810:
    trampoline 810
Trampoline811:
    trampoline 811
Trampoline812:
    trampoline 812
Trampoline813:
    trampoline 813
Trampoline814:
    trampoline 814
Trampoline815:
    trampoline 815
Trampoline816:
    trampoline 816
Trampoline817:
    trampoline 817
Trampoline818:
    trampoline 818
Trampoline819:
    trampoline 819
Trampoline820:
    trampoline 820
Trampoline821:
    trampoline 821
Trampoline822:
    trampoline 822
Trampoline823:
    trampoline 823
Trampoline824:
    trampoline 824
Trampoline825:
    trampoline 825
Trampoline826:
    trampoline 826
Trampoline827:
    trampoline 827
Trampoline828:
    trampoline 828
Trampoline829:
    trampoline 829
Trampoline830:
    trampoline 830
Trampoline831:
    trampoline 831
Trampoline832:
    trampoline 832
Trampoline833:
    trampoline 833
Trampoline834:
    trampoline 834
Trampoline835:
    trampoline 835
Trampoline836:
    trampoline 836
Trampoline837:
    trampoline 837
Trampoline838:
    trampoline 838
Trampoline839:
    trampoline 839
Trampoline840:
    trampoline 840
Trampoline841:
    trampoline 841
Trampoline842:
    trampoline 842
Trampoline843:
    trampoline 843
Trampoline844:
    trampoline 844
Trampoline845:
    trampoline 845
Trampoline846:
    trampoline 846
Trampoline847:
    trampoline 847
Trampoline848:
    trampoline 848
Trampoline849:
    trampoline 849
Trampoline850:
    trampoline 850
Trampoline851:
    trampoline 851
Trampoline852:
    trampoline 852
Trampoline853:
    trampoline 853
Trampoline854:
    trampoline 854
Trampoline855:
    trampoline 855
Trampoline856:
    trampoline 856
Trampoline857:
    trampoline 857
Trampoline858:
    trampoline 858
Trampoline859:
    trampoline 859
Trampoline860:
    trampoline 860
Trampoline861:
    trampoline 861
Trampoline862:
    trampoline 862
Trampoline863:
    trampoline 863
Trampoline864:
    trampoline 864
Trampoline865:
    trampoline 865
Trampoline866:
    trampoline 866
Trampoline867:
    trampoline 867
Trampoline868:
    trampoline 868
Trampoline869:
    trampoline 869
Trampoline870:
    trampoline 870
Trampoline871:
    trampoline 871
Trampoline872:
    trampoline 872
Trampoline873:
    trampoline 873
Trampoline874:
    trampoline 874
Trampoline875:
    trampoline 875
Trampoline876:
    trampoline 876
Trampoline877:
    trampoline 877
Trampoline878:
    trampoline 878
Trampoline879:
    trampoline 879
Trampoline880:
    trampoline 880
Trampoline881:
    trampoline 881
Trampoline882:
    trampoline 882
Trampoline883:
    trampoline 883
Trampoline884:
    trampoline 884
Trampoline885:
    trampoline 885
Trampoline886:
    trampoline 886
Trampoline887:
    trampoline 887
Trampoline888:
    trampoline 888
Trampoline889:
    trampoline 889
Trampoline890:
    trampoline 890
Trampoline891:
    trampoline 891
Trampoline892:
    trampoline 892
Trampoline893:
    trampoline 893
Trampoline894:
    trampoline 894
Trampoline895:
    trampoline 895
Trampoline896:
    trampoline 896
Trampoline897:
    trampoline 897
Trampoline898:
    trampoline 898
Trampoline899:
    trampoline 899
Trampoline900:
    trampoline 900
Trampoline901:
    trampoline 901
Trampoline902:
    trampoline 902
Trampoline903:
    trampoline 903
Trampoline904:
    trampoline 904
Trampoline905:
    trampoline 905
Trampoline906:
    trampoline 906
Trampoline907:
    trampoline 907
Trampoline908:
    trampoline 908
Trampoline909:
    trampoline 909
Trampoline910:
    trampoline 910
Trampoline911:
    trampoline 911
Trampoline912:
    trampoline 912
Trampoline913:
    trampoline 913
Trampoline914:
    trampoline 914
Trampoline915:
    trampoline 915
Trampoline916:
    trampoline 916
Trampoline917:
    trampoline 917
Trampoline918:
    trampoline 918
Trampoline919:
    trampoline 919
Trampoline920:
    trampoline 920
Trampoline921:
    trampoline 921
Trampoline922:
    trampoline 922
Trampoline923:
    trampoline 923
Trampoline924:
    trampoline 924
Trampoline925:
    trampoline 925
Trampoline926:
    trampoline 926
Trampoline927:
    trampoline 927
Trampoline928:
    trampoline 928
Trampoline929:
    trampoline 929
Trampoline930:
    trampoline 930
Trampoline931:
    trampoline 931
Trampoline932:
    trampoline 932
Trampoline933:
    trampoline 933
Trampoline934:
    trampoline 934
Trampoline935:
    trampoline 935
Trampoline936:
    trampoline 936
Trampoline937:
    trampoline 937
Trampoline938:
    trampoline 938
Trampoline939:
    trampoline 939
Trampoline940:
    trampoline 940
Trampoline941:
    trampoline 941
Trampoline942:
    trampoline 942
Trampoline943:
    trampoline 943
Trampoline944:
    trampoline 944
Trampoline945:
    trampoline 945
Trampoline946:
    trampoline 946
Trampoline947:
    trampoline 947
Trampoline948:
    trampoline 948
Trampoline949:
    trampoline 949
Trampoline950:
    trampoline 950
Trampoline951:
    trampoline 951
Trampoline952:
    trampoline 952
Trampoline953:
    trampoline 953
Trampoline954:
    trampoline 954
Trampoline955:
    trampoline 955
Trampoline956:
    trampoline 956
Trampoline957:
    trampoline 957
Trampoline958:
    trampoline 958
Trampoline959:
    trampoline 959
Trampoline960:
    trampoline 960
Trampoline961:
    trampoline 961
Trampoline962:
    trampoline 962
Trampoline963:
    trampoline 963
Trampoline964:
    trampoline 964
Trampoline965:
    trampoline 965
Trampoline966:
    trampoline 966
Trampoline967:
    trampoline 967
Trampoline968:
    trampoline 968
Trampoline969:
    trampoline 969
Trampoline970:
    trampoline 970
Trampoline971:
    trampoline 971
Trampoline972:
    trampoline 972
Trampoline973:
    trampoline 973
Trampoline974:
    trampoline 974
Trampoline975:
    trampoline 975
Trampoline976:
    trampoline 976
Trampoline977:
    trampoline 977
Trampoline978:
    trampoline 978
Trampoline979:
    trampoline 979
Trampoline980:
    trampoline 980
Trampoline981:
    trampoline 981
Trampoline982:
    trampoline 982
Trampoline983:
    trampoline 983
Trampoline984:
    trampoline 984
Trampoline985:
    trampoline 985
Trampoline986:
    trampoline 986
Trampoline987:
    trampoline 987
Trampoline988:
    trampoline 988
Trampoline989:
    trampoline 989
Trampoline990:
    trampoline 990
Trampoline991:
    trampoline 991
Trampoline992:
    trampoline 992
Trampoline993:
    trampoline 993
Trampoline994:
    trampoline 994
Trampoline995:
    trampoline 995
Trampoline996:
    trampoline 996
Trampoline997:
    trampoline 997
Trampoline998:
    trampoline 998
Trampoline999:
    trampoline 999
Trampoline1000:
    trampoline 1000
Trampoline1001:
    trampoline 1001
Trampoline1002:
    trampoline 1002
Trampoline1003:
    trampoline 1003
Trampoline1004:
    trampoline 1004
Trampoline1005:
    trampoline 1005
Trampoline1006:
    trampoline 1006
Trampoline1007:
    trampoline 1007
Trampoline1008:
    trampoline 1008
Trampoline1009:
    trampoline 1009
Trampoline1010:
    trampoline 1010
Trampoline1011:
    trampoline 1011
Trampoline1012:
    trampoline 1012
Trampoline1013:
    trampoline 1013
Trampoline1014:
    trampoline 1014
Trampoline1015:
    trampoline 1015
Trampoline1016:
    trampoline 1016
Trampoline1017:
    trampoline 1017
Trampoline1018:
    trampoline 1018
Trampoline1019:
    trampoline 1019
Trampoline1020:
    trampoline 1020
Trampoline1021:
    trampoline 1021
Trampoline1022:
    trampoline 1022
Trampoline1023:
    trampoline 1023

TrampolineX0:
    trampoline_x87 0
TrampolineX1:
    trampoline_x87 1
TrampolineX2:
    trampoline_x87 2
TrampolineX3:
    trampoline_x87 3
TrampolineX4:
    trampoline_x87 4
TrampolineX5:
    trampoline_x87 5
TrampolineX6:
    trampoline_x87 6
TrampolineX7:
    trampoline_x87 7
TrampolineX8:
    trampoline_x87 8
TrampolineX9:
    trampoline_x87 9
TrampolineX10:
    trampoline_x87 10
TrampolineX11:
    trampoline_x87 11
TrampolineX12:
    trampoline_x87 12
TrampolineX13:
    trampoline_x87 13
TrampolineX14:
    trampoline_x87 14
TrampolineX15:
    trampoline_x87 15
TrampolineX16:
    trampoline_x87 16
TrampolineX17:
    trampoline_x87 17
TrampolineX18:
    trampoline_x87 18
TrampolineX19:
    trampoline_x87 19
TrampolineX20:
    trampoline_x87 20
TrampolineX21:
    trampoline_x87 21
TrampolineX22:
    trampoline_x87 22
TrampolineX23:
    trampoline_x87 23
TrampolineX24:
    trampoline_x87 24
TrampolineX25:
    trampoline_x87 25
TrampolineX26:
    trampoline_x87 26
TrampolineX27:
    trampoline_x87 27
TrampolineX28:
    trampoline_x87 28
TrampolineX29:
    trampoline_x87 29
TrampolineX30:
    trampoline_x87 30
TrampolineX31:
    trampoline_x87 31
TrampolineX32:
    trampoline_x87 32
TrampolineX33:
    trampoline_x87 33
TrampolineX34:
    trampoline_x87 34
TrampolineX35:
    trampoline_x87 35
TrampolineX36:
    trampoline_x87 36
TrampolineX37:
    trampoline_x87 37
TrampolineX38:
    trampoline_x87 38
TrampolineX39:
    trampoline_x87 39
TrampolineX40:
    trampoline_x87 40
TrampolineX41:
    trampoline_x87 41
TrampolineX42:
    trampoline_x87 42
TrampolineX43:
    trampoline_x87 43
TrampolineX44:
    trampoline_x87 44
TrampolineX45:
    trampoline_x87 45
TrampolineX46:
    trampoline_x87 46
TrampolineX47:
    trampoline_x87 47
TrampolineX48:
    trampoline_x87 48
TrampolineX49:
    trampoline_x87 49
TrampolineX50:
    trampoline_x87 50
TrampolineX51:
    trampoline_x87 51
TrampolineX52:
    trampoline_x87 52
TrampolineX53:
    trampoline_x87 53
TrampolineX54:
    trampoline_x87 54
TrampolineX55:
    trampoline_x87 55
TrampolineX56:
    trampoline_x87 56
TrampolineX57:
    trampoline_x87 57
TrampolineX58:
    trampoline_x87 58
TrampolineX59:
    trampoline_x87 59
TrampolineX60:
    trampoline_x87 60
TrampolineX61:
    trampoline_x87 61
TrampolineX62:
    trampoline_x87 62
TrampolineX63:
    trampoline_x87 63
TrampolineX64:
    trampoline_x87 64
TrampolineX65:
    trampoline_x87 65
TrampolineX66:
    trampoline_x87 66
TrampolineX67:
    trampoline_x87 67
TrampolineX68:
    trampoline_x87 68
TrampolineX69:
    trampoline_x87 69
TrampolineX70:
    trampoline_x87 70
TrampolineX71:
    trampoline_x87 71
TrampolineX72:
    trampoline_x87 72
TrampolineX73:
    trampoline_x87 73
TrampolineX74:
    trampoline_x87 74
TrampolineX75:
    trampoline_x87 75
TrampolineX76:
    trampoline_x87 76
TrampolineX77:
    trampoline_x87 77
TrampolineX78:
    trampoline_x87 78
TrampolineX79:
    trampoline_x87 79
TrampolineX80:
    trampoline_x87 80
TrampolineX81:
    trampoline_x87 81
TrampolineX82:
    trampoline_x87 82
TrampolineX83:
    trampoline_x87 83
TrampolineX84:
    trampoline_x87 84
TrampolineX85:
    trampoline_x87 85
TrampolineX86:
    trampoline_x87 86
TrampolineX87:
    trampoline_x87 87
TrampolineX88:
    trampoline_x87 88
TrampolineX89:
    trampoline_x87 89
TrampolineX90:
    trampoline_x87 90
TrampolineX91:
    trampoline_x87 91
TrampolineX92:
    trampoline_x87 92
TrampolineX93:
    trampoline_x87 93
TrampolineX94:
    trampoline_x87 94
TrampolineX95:
    trampoline_x87 95
TrampolineX96:
    trampoline_x87 96
TrampolineX97:
    trampoline_x87 97
TrampolineX98:
    trampoline_x87 98
TrampolineX99:
    trampoline_x87 99
TrampolineX100:
    trampoline_x87 100
TrampolineX101:
    trampoline_x87 101
TrampolineX102:
    trampoline_x87 102
TrampolineX103:
    trampoline_x87 103
TrampolineX104:
    trampoline_x87 104
TrampolineX105:
    trampoline_x87 105
TrampolineX106:
    trampoline_x87 106
TrampolineX107:
    trampoline_x87 107
TrampolineX108:
    trampoline_x87 108
TrampolineX109:
    trampoline_x87 109
TrampolineX110:
    trampoline_x87 110
TrampolineX111:
    trampoline_x87 111
TrampolineX112:
    trampoline_x87 112
TrampolineX113:
    trampoline_x87 113
TrampolineX114:
    trampoline_x87 114
TrampolineX115:
    trampoline_x87 115
TrampolineX116:
    trampoline_x87 116
TrampolineX117:
    trampoline_x87 117
TrampolineX118:
    trampoline_x87 118
TrampolineX119:
    trampoline_x87 119
TrampolineX120:
    trampoline_x87 120
TrampolineX121:
    trampoline_x87 121
TrampolineX122:
    trampoline_x87 122
TrampolineX123:
    trampoline_x87 123
TrampolineX124:
    trampoline_x87 124
TrampolineX125:
    trampoline_x87 125
TrampolineX126:
    trampoline_x87 126
TrampolineX127:
    trampoline_x87 127
TrampolineX128:
    trampoline_x87 128
TrampolineX129:
    trampoline_x87 129
TrampolineX130:
    trampoline_x87 130
TrampolineX131:
    trampoline_x87 131
TrampolineX132:
    trampoline_x87 132
TrampolineX133:
    trampoline_x87 133
TrampolineX134:
    trampoline_x87 134
TrampolineX135:
    trampoline_x87 135
TrampolineX136:
    trampoline_x87 136
TrampolineX137:
    trampoline_x87 137
TrampolineX138:
    trampoline_x87 138
TrampolineX139:
    trampoline_x87 139
TrampolineX140:
    trampoline_x87 140
TrampolineX141:
    trampoline_x87 141
TrampolineX142:
    trampoline_x87 142
TrampolineX143:
    trampoline_x87 143
TrampolineX144:
    trampoline_x87 144
TrampolineX145:
    trampoline_x87 145
TrampolineX146:
    trampoline_x87 146
TrampolineX147:
    trampoline_x87 147
TrampolineX148:
    trampoline_x87 148
TrampolineX149:
    trampoline_x87 149
TrampolineX150:
    trampoline_x87 150
TrampolineX151:
    trampoline_x87 151
TrampolineX152:
    trampoline_x87 152
TrampolineX153:
    trampoline_x87 153
TrampolineX154:
    trampoline_x87 154
TrampolineX155:
    trampoline_x87 155
TrampolineX156:
    trampoline_x87 156
TrampolineX157:
    trampoline_x87 157
TrampolineX158:
    trampoline_x87 158
TrampolineX159:
    trampoline_x87 159
TrampolineX160:
    trampoline_x87 160
TrampolineX161:
    trampoline_x87 161
TrampolineX162:
    trampoline_x87 162
TrampolineX163:
    trampoline_x87 163
TrampolineX164:
    trampoline_x87 164
TrampolineX165:
    trampoline_x87 165
TrampolineX166:
    trampoline_x87 166
TrampolineX167:
    trampoline_x87 167
TrampolineX168:
    trampoline_x87 168
TrampolineX169:
    trampoline_x87 169
TrampolineX170:
    trampoline_x87 170
TrampolineX171:
    trampoline_x87 171
TrampolineX172:
    trampoline_x87 172
TrampolineX173:
    trampoline_x87 173
TrampolineX174:
    trampoline_x87 174
TrampolineX175:
    trampoline_x87 175
TrampolineX176:
    trampoline_x87 176
TrampolineX177:
    trampoline_x87 177
TrampolineX178:
    trampoline_x87 178
TrampolineX179:
    trampoline_x87 179
TrampolineX180:
    trampoline_x87 180
TrampolineX181:
    trampoline_x87 181
TrampolineX182:
    trampoline_x87 182
TrampolineX183:
    trampoline_x87 183
TrampolineX184:
    trampoline_x87 184
TrampolineX185:
    trampoline_x87 185
TrampolineX186:
    trampoline_x87 186
TrampolineX187:
    trampoline_x87 187
TrampolineX188:
    trampoline_x87 188
TrampolineX189:
    trampoline_x87 189
TrampolineX190:
    trampoline_x87 190
TrampolineX191:
    trampoline_x87 191
TrampolineX192:
    trampoline_x87 192
TrampolineX193:
    trampoline_x87 193
TrampolineX194:
    trampoline_x87 194
TrampolineX195:
    trampoline_x87 195
TrampolineX196:
    trampoline_x87 196
TrampolineX197:
    trampoline_x87 197
TrampolineX198:
    trampoline_x87 198
TrampolineX199:
    trampoline_x87 199
TrampolineX200:
    trampoline_x87 200
TrampolineX201:
    trampoline_x87 201
TrampolineX202:
    trampoline_x87 202
TrampolineX203:
    trampoline_x87 203
TrampolineX204:
    trampoline_x87 204
TrampolineX205:
    trampoline_x87 205
TrampolineX206:
    trampoline_x87 206
TrampolineX207:
    trampoline_x87 207
TrampolineX208:
    trampoline_x87 208
TrampolineX209:
    trampoline_x87 209
TrampolineX210:
    trampoline_x87 210
TrampolineX211:
    trampoline_x87 211
TrampolineX212:
    trampoline_x87 212
TrampolineX213:
    trampoline_x87 213
TrampolineX214:
    trampoline_x87 214
TrampolineX215:
    trampoline_x87 215
TrampolineX216:
    trampoline_x87 216
TrampolineX217:
    trampoline_x87 217
TrampolineX218:
    trampoline_x87 218
TrampolineX219:
    trampoline_x87 219
TrampolineX220:
    trampoline_x87 220
TrampolineX221:
    trampoline_x87 221
TrampolineX222:
    trampoline_x87 222
TrampolineX223:
    trampoline_x87 223
TrampolineX224:
    trampoline_x87 224
TrampolineX225:
    trampoline_x87 225
TrampolineX226:
    trampoline_x87 226
TrampolineX227:
    trampoline_x87 227
TrampolineX228:
    trampoline_x87 228
TrampolineX229:
    trampoline_x87 229
TrampolineX230:
    trampoline_x87 230
TrampolineX231:
    trampoline_x87 231
TrampolineX232:
    trampoline_x87 232
TrampolineX233:
    trampoline_x87 233
TrampolineX234:
    trampoline_x87 234
TrampolineX235:
    trampoline_x87 235
TrampolineX236:
    trampoline_x87 236
TrampolineX237:
    trampoline_x87 237
TrampolineX238:
    trampoline_x87 238
TrampolineX239:
    trampoline_x87 239
TrampolineX240:
    trampoline_x87 240
TrampolineX241:
    trampoline_x87 241
TrampolineX242:
    trampoline_x87 242
TrampolineX243:
    trampoline_x87 243
TrampolineX244:
    trampoline_x87 244
TrampolineX245:
    trampoline_x87 245
TrampolineX246:
    trampoline_x87 246
TrampolineX247:
    trampoline_x87 247
TrampolineX248:
    trampoline_x87 248
TrampolineX249:
    trampoline_x87 249
TrampolineX250:
    trampoline_x87 250
TrampolineX251:
    trampoline_x87 251
TrampolineX252:
    trampoline_x87 252
TrampolineX253:
    trampoline_x87 253
TrampolineX254:
    trampoline_x87 254
TrampolineX255:
    trampoline_x87 255
TrampolineX256:
    trampoline_x87 256
TrampolineX257:
    trampoline_x87 257
TrampolineX258:
    trampoline_x87 258
TrampolineX259:
    trampoline_x87 259
TrampolineX260:
    trampoline_x87 260
TrampolineX261:
    trampoline_x87 261
TrampolineX262:
    trampoline_x87 262
TrampolineX263:
    trampoline_x87 263
TrampolineX264:
    trampoline_x87 264
TrampolineX265:
    trampoline_x87 265
TrampolineX266:
    trampoline_x87 266
TrampolineX267:
    trampoline_x87 267
TrampolineX268:
    trampoline_x87 268
TrampolineX269:
    trampoline_x87 269
TrampolineX270:
    trampoline_x87 270
TrampolineX271:
    trampoline_x87 271
TrampolineX272:
    trampoline_x87 272
TrampolineX273:
    trampoline_x87 273
TrampolineX274:
    trampoline_x87 274
TrampolineX275:
    trampoline_x87 275
TrampolineX276:
    trampoline_x87 276
TrampolineX277:
    trampoline_x87 277
TrampolineX278:
    trampoline_x87 278
TrampolineX279:
    trampoline_x87 279
TrampolineX280:
    trampoline_x87 280
TrampolineX281:
    trampoline_x87 281
TrampolineX282:
    trampoline_x87 282
TrampolineX283:
    trampoline_x87 283
TrampolineX284:
    trampoline_x87 284
TrampolineX285:
    trampoline_x87 285
TrampolineX286:
    trampoline_x87 286
TrampolineX287:
    trampoline_x87 287
TrampolineX288:
    trampoline_x87 288
TrampolineX289:
    trampoline_x87 289
TrampolineX290:
    trampoline_x87 290
TrampolineX291:
    trampoline_x87 291
TrampolineX292:
    trampoline_x87 292
TrampolineX293:
    trampoline_x87 293
TrampolineX294:
    trampoline_x87 294
TrampolineX295:
    trampoline_x87 295
TrampolineX296:
    trampoline_x87 296
TrampolineX297:
    trampoline_x87 297
TrampolineX298:
    trampoline_x87 298
TrampolineX299:
    trampoline_x87 299
TrampolineX300:
    trampoline_x87 300
TrampolineX301:
    trampoline_x87 301
TrampolineX302:
    trampoline_x87 302
TrampolineX303:
    trampoline_x87 303
TrampolineX304:
    trampoline_x87 304
TrampolineX305:
    trampoline_x87 305
TrampolineX306:
    trampoline_x87 306
TrampolineX307:
    trampoline_x87 307
TrampolineX308:
    trampoline_x87 308
TrampolineX309:
    trampoline_x87 309
TrampolineX310:
    trampoline_x87 310
TrampolineX311:
    trampoline_x87 311
TrampolineX312:
    trampoline_x87 312
TrampolineX313:
    trampoline_x87 313
TrampolineX314:
    trampoline_x87 314
TrampolineX315:
    trampoline_x87 315
TrampolineX316:
    trampoline_x87 316
TrampolineX317:
    trampoline_x87 317
TrampolineX318:
    trampoline_x87 318
TrampolineX319:
    trampoline_x87 319
TrampolineX320:
    trampoline_x87 320
TrampolineX321:
    trampoline_x87 321
TrampolineX322:
    trampoline_x87 322
TrampolineX323:
    trampoline_x87 323
TrampolineX324:
    trampoline_x87 324
TrampolineX325:
    trampoline_x87 325
TrampolineX326:
    trampoline_x87 326
TrampolineX327:
    trampoline_x87 327
TrampolineX328:
    trampoline_x87 328
TrampolineX329:
    trampoline_x87 329
TrampolineX330:
    trampoline_x87 330
TrampolineX331:
    trampoline_x87 331
TrampolineX332:
    trampoline_x87 332
TrampolineX333:
    trampoline_x87 333
TrampolineX334:
    trampoline_x87 334
TrampolineX335:
    trampoline_x87 335
TrampolineX336:
    trampoline_x87 336
TrampolineX337:
    trampoline_x87 337
TrampolineX338:
    trampoline_x87 338
TrampolineX339:
    trampoline_x87 339
TrampolineX340:
    trampoline_x87 340
TrampolineX341:
    trampoline_x87 341
TrampolineX342:
    trampoline_x87 342
TrampolineX343:
    trampoline_x87 343
TrampolineX344:
    trampoline_x87 344
TrampolineX345:
    trampoline_x87 345
TrampolineX346:
    trampoline_x87 346
TrampolineX347:
    trampoline_x87 347
TrampolineX348:
    trampoline_x87 348
TrampolineX349:
    trampoline_x87 349
TrampolineX350:
    trampoline_x87 350
TrampolineX351:
    trampoline_x87 351
TrampolineX352:
    trampoline_x87 352
TrampolineX353:
    trampoline_x87 353
TrampolineX354:
    trampoline_x87 354
TrampolineX355:
    trampoline_x87 355
TrampolineX356:
    trampoline_x87 356
TrampolineX357:
    trampoline_x87 357
TrampolineX358:
    trampoline_x87 358
TrampolineX359:
    trampoline_x87 359
TrampolineX360:
    trampoline_x87 360
TrampolineX361:
    trampoline_x87 361
TrampolineX362:
    trampoline_x87 362
TrampolineX363:
    trampoline_x87 363
TrampolineX364:
    trampoline_x87 364
TrampolineX365:
    trampoline_x87 365
TrampolineX366:
    trampoline_x87 366
TrampolineX367:
    trampoline_x87 367
TrampolineX368:
    trampoline_x87 368
TrampolineX369:
    trampoline_x87 369
TrampolineX370:
    trampoline_x87 370
TrampolineX371:
    trampoline_x87 371
TrampolineX372:
    trampoline_x87 372
TrampolineX373:
    trampoline_x87 373
TrampolineX374:
    trampoline_x87 374
TrampolineX375:
    trampoline_x87 375
TrampolineX376:
    trampoline_x87 376
TrampolineX377:
    trampoline_x87 377
TrampolineX378:
    trampoline_x87 378
TrampolineX379:
    trampoline_x87 379
TrampolineX380:
    trampoline_x87 380
TrampolineX381:
    trampoline_x87 381
TrampolineX382:
    trampoline_x87 382
TrampolineX383:
    trampoline_x87 383
TrampolineX384:
    trampoline_x87 384
TrampolineX385:
    trampoline_x87 385
TrampolineX386:
    trampoline_x87 386
TrampolineX387:
    trampoline_x87 387
TrampolineX388:
    trampoline_x87 388
TrampolineX389:
    trampoline_x87 389
TrampolineX390:
    trampoline_x87 390
TrampolineX391:
    trampoline_x87 391
TrampolineX392:
    trampoline_x87 392
TrampolineX393:
    trampoline_x87 393
TrampolineX394:
    trampoline_x87 394
TrampolineX395:
    trampoline_x87 395
TrampolineX396:
    trampoline_x87 396
TrampolineX397:
    trampoline_x87 397
TrampolineX398:
    trampoline_x87 398
TrampolineX399:
    trampoline_x87 399
TrampolineX400:
    trampoline_x87 400
TrampolineX401:
    trampoline_x87 401
TrampolineX402:
    trampoline_x87 402
TrampolineX403:
    trampoline_x87 403
TrampolineX404:
    trampoline_x87 404
TrampolineX405:
    trampoline_x87 405
TrampolineX406:
    trampoline_x87 406
TrampolineX407:
    trampoline_x87 407
TrampolineX408:
    trampoline_x87 408
TrampolineX409:
    trampoline_x87 409
TrampolineX410:
    trampoline_x87 410
TrampolineX411:
    trampoline_x87 411
TrampolineX412:
    trampoline_x87 412
TrampolineX413:
    trampoline_x87 413
TrampolineX414:
    trampoline_x87 414
TrampolineX415:
    trampoline_x87 415
TrampolineX416:
    trampoline_x87 416
TrampolineX417:
    trampoline_x87 417
TrampolineX418:
    trampoline_x87 418
TrampolineX419:
    trampoline_x87 419
TrampolineX420:
    trampoline_x87 420
TrampolineX421:
    trampoline_x87 421
TrampolineX422:
    trampoline_x87 422
TrampolineX423:
    trampoline_x87 423
TrampolineX424:
    trampoline_x87 424
TrampolineX425:
    trampoline_x87 425
TrampolineX426:
    trampoline_x87 426
TrampolineX427:
    trampoline_x87 427
TrampolineX428:
    trampoline_x87 428
TrampolineX429:
    trampoline_x87 429
TrampolineX430:
    trampoline_x87 430
TrampolineX431:
    trampoline_x87 431
TrampolineX432:
    trampoline_x87 432
TrampolineX433:
    trampoline_x87 433
TrampolineX434:
    trampoline_x87 434
TrampolineX435:
    trampoline_x87 435
TrampolineX436:
    trampoline_x87 436
TrampolineX437:
    trampoline_x87 437
TrampolineX438:
    trampoline_x87 438
TrampolineX439:
    trampoline_x87 439
TrampolineX440:
    trampoline_x87 440
TrampolineX441:
    trampoline_x87 441
TrampolineX442:
    trampoline_x87 442
TrampolineX443:
    trampoline_x87 443
TrampolineX444:
    trampoline_x87 444
TrampolineX445:
    trampoline_x87 445
TrampolineX446:
    trampoline_x87 446
TrampolineX447:
    trampoline_x87 447
TrampolineX448:
    trampoline_x87 448
TrampolineX449:
    trampoline_x87 449
TrampolineX450:
    trampoline_x87 450
TrampolineX451:
    trampoline_x87 451
TrampolineX452:
    trampoline_x87 452
TrampolineX453:
    trampoline_x87 453
TrampolineX454:
    trampoline_x87 454
TrampolineX455:
    trampoline_x87 455
TrampolineX456:
    trampoline_x87 456
TrampolineX457:
    trampoline_x87 457
TrampolineX458:
    trampoline_x87 458
TrampolineX459:
    trampoline_x87 459
TrampolineX460:
    trampoline_x87 460
TrampolineX461:
    trampoline_x87 461
TrampolineX462:
    trampoline_x87 462
TrampolineX463:
    trampoline_x87 463
TrampolineX464:
    trampoline_x87 464
TrampolineX465:
    trampoline_x87 465
TrampolineX466:
    trampoline_x87 466
TrampolineX467:
    trampoline_x87 467
TrampolineX468:
    trampoline_x87 468
TrampolineX469:
    trampoline_x87 469
TrampolineX470:
    trampoline_x87 470
TrampolineX471:
    trampoline_x87 471
TrampolineX472:
    trampoline_x87 472
TrampolineX473:
    trampoline_x87 473
TrampolineX474:
    trampoline_x87 474
TrampolineX475:
    trampoline_x87 475
TrampolineX476:
    trampoline_x87 476
TrampolineX477:
    trampoline_x87 477
TrampolineX478:
    trampoline_x87 478
TrampolineX479:
    trampoline_x87 479
TrampolineX480:
    trampoline_x87 480
TrampolineX481:
    trampoline_x87 481
TrampolineX482:
    trampoline_x87 482
TrampolineX483:
    trampoline_x87 483
TrampolineX484:
    trampoline_x87 484
TrampolineX485:
    trampoline_x87 485
TrampolineX486:
    trampoline_x87 486
TrampolineX487:
    trampoline_x87 487
TrampolineX488:
    trampoline_x87 488
TrampolineX489:
    trampoline_x87 489
TrampolineX490:
    trampoline_x87 490
TrampolineX491:
    trampoline_x87 491
TrampolineX492:
    trampoline_x87 492
TrampolineX493:
    trampoline_x87 493
TrampolineX494:
    trampoline_x87 494
TrampolineX495:
    trampoline_x87 495
TrampolineX496:
    trampoline_x87 496
TrampolineX497:
    trampoline_x87 497
TrampolineX498:
    trampoline_x87 498
TrampolineX499:
    trampoline_x87 499
TrampolineX500:
    trampoline_x87 500
TrampolineX501:
    trampoline_x87 501
TrampolineX502:
    trampoline_x87 502
TrampolineX503:
    trampoline_x87 503
TrampolineX504:
    trampoline_x87 504
TrampolineX505:
    trampoline_x87 505
TrampolineX506:
    trampoline_x87 506
TrampolineX507:
    trampoline_x87 507
TrampolineX508:
    trampoline_x87 508
TrampolineX509:
    trampoline_x87 509
TrampolineX510:
    trampoline_x87 510
TrampolineX511:
    trampoline_x87 511
TrampolineX512:
    trampoline_x87 512
TrampolineX513:
    trampoline_x87 513
TrampolineX514:
    trampoline_x87 514
TrampolineX515:
    trampoline_x87 515
TrampolineX516:
    trampoline_x87 516
TrampolineX517:
    trampoline_x87 517
TrampolineX518:
    trampoline_x87 518
TrampolineX519:
    trampoline_x87 519
TrampolineX520:
    trampoline_x87 520
TrampolineX521:
    trampoline_x87 521
TrampolineX522:
    trampoline_x87 522
TrampolineX523:
    trampoline_x87 523
TrampolineX524:
    trampoline_x87 524
TrampolineX525:
    trampoline_x87 525
TrampolineX526:
    trampoline_x87 526
TrampolineX527:
    trampoline_x87 527
TrampolineX528:
    trampoline_x87 528
TrampolineX529:
    trampoline_x87 529
TrampolineX530:
    trampoline_x87 530
TrampolineX531:
    trampoline_x87 531
TrampolineX532:
    trampoline_x87 532
TrampolineX533:
    trampoline_x87 533
TrampolineX534:
    trampoline_x87 534
TrampolineX535:
    trampoline_x87 535
TrampolineX536:
    trampoline_x87 536
TrampolineX537:
    trampoline_x87 537
TrampolineX538:
    trampoline_x87 538
TrampolineX539:
    trampoline_x87 539
TrampolineX540:
    trampoline_x87 540
TrampolineX541:
    trampoline_x87 541
TrampolineX542:
    trampoline_x87 542
TrampolineX543:
    trampoline_x87 543
TrampolineX544:
    trampoline_x87 544
TrampolineX545:
    trampoline_x87 545
TrampolineX546:
    trampoline_x87 546
TrampolineX547:
    trampoline_x87 547
TrampolineX548:
    trampoline_x87 548
TrampolineX549:
    trampoline_x87 549
TrampolineX550:
    trampoline_x87 550
TrampolineX551:
    trampoline_x87 551
TrampolineX552:
    trampoline_x87 552
TrampolineX553:
    trampoline_x87 553
TrampolineX554:
    trampoline_x87 554
TrampolineX555:
    trampoline_x87 555
TrampolineX556:
    trampoline_x87 556
TrampolineX557:
    trampoline_x87 557
TrampolineX558:
    trampoline_x87 558
TrampolineX559:
    trampoline_x87 559
TrampolineX560:
    trampoline_x87 560
TrampolineX561:
    trampoline_x87 561
TrampolineX562:
    trampoline_x87 562
TrampolineX563:
    trampoline_x87 563
TrampolineX564:
    trampoline_x87 564
TrampolineX565:
    trampoline_x87 565
TrampolineX566:
    trampoline_x87 566
TrampolineX567:
    trampoline_x87 567
TrampolineX568:
    trampoline_x87 568
TrampolineX569:
    trampoline_x87 569
TrampolineX570:
    trampoline_x87 570
TrampolineX571:
    trampoline_x87 571
TrampolineX572:
    trampoline_x87 572
TrampolineX573:
    trampoline_x87 573
TrampolineX574:
    trampoline_x87 574
TrampolineX575:
    trampoline_x87 575
TrampolineX576:
    trampoline_x87 576
TrampolineX577:
    trampoline_x87 577
TrampolineX578:
    trampoline_x87 578
TrampolineX579:
    trampoline_x87 579
TrampolineX580:
    trampoline_x87 580
TrampolineX581:
    trampoline_x87 581
TrampolineX582:
    trampoline_x87 582
TrampolineX583:
    trampoline_x87 583
TrampolineX584:
    trampoline_x87 584
TrampolineX585:
    trampoline_x87 585
TrampolineX586:
    trampoline_x87 586
TrampolineX587:
    trampoline_x87 587
TrampolineX588:
    trampoline_x87 588
TrampolineX589:
    trampoline_x87 589
TrampolineX590:
    trampoline_x87 590
TrampolineX591:
    trampoline_x87 591
TrampolineX592:
    trampoline_x87 592
TrampolineX593:
    trampoline_x87 593
TrampolineX594:
    trampoline_x87 594
TrampolineX595:
    trampoline_x87 595
TrampolineX596:
    trampoline_x87 596
TrampolineX597:
    trampoline_x87 597
TrampolineX598:
    trampoline_x87 598
TrampolineX599:
    trampoline_x87 599
TrampolineX600:
    trampoline_x87 600
TrampolineX601:
    trampoline_x87 601
TrampolineX602:
    trampoline_x87 602
TrampolineX603:
    trampoline_x87 603
TrampolineX604:
    trampoline_x87 604
TrampolineX605:
    trampoline_x87 605
TrampolineX606:
    trampoline_x87 606
TrampolineX607:
    trampoline_x87 607
TrampolineX608:
    trampoline_x87 608
TrampolineX609:
    trampoline_x87 609
TrampolineX610:
    trampoline_x87 610
TrampolineX611:
    trampoline_x87 611
TrampolineX612:
    trampoline_x87 612
TrampolineX613:
    trampoline_x87 613
TrampolineX614:
    trampoline_x87 614
TrampolineX615:
    trampoline_x87 615
TrampolineX616:
    trampoline_x87 616
TrampolineX617:
    trampoline_x87 617
TrampolineX618:
    trampoline_x87 618
TrampolineX619:
    trampoline_x87 619
TrampolineX620:
    trampoline_x87 620
TrampolineX621:
    trampoline_x87 621
TrampolineX622:
    trampoline_x87 622
TrampolineX623:
    trampoline_x87 623
TrampolineX624:
    trampoline_x87 624
TrampolineX625:
    trampoline_x87 625
TrampolineX626:
    trampoline_x87 626
TrampolineX627:
    trampoline_x87 627
TrampolineX628:
    trampoline_x87 628
TrampolineX629:
    trampoline_x87 629
TrampolineX630:
    trampoline_x87 630
TrampolineX631:
    trampoline_x87 631
TrampolineX632:
    trampoline_x87 632
TrampolineX633:
    trampoline_x87 633
TrampolineX634:
    trampoline_x87 634
TrampolineX635:
    trampoline_x87 635
TrampolineX636:
    trampoline_x87 636
TrampolineX637:
    trampoline_x87 637
TrampolineX638:
    trampoline_x87 638
TrampolineX639:
    trampoline_x87 639
TrampolineX640:
    trampoline_x87 640
TrampolineX641:
    trampoline_x87 641
TrampolineX642:
    trampoline_x87 642
TrampolineX643:
    trampoline_x87 643
TrampolineX644:
    trampoline_x87 644
TrampolineX645:
    trampoline_x87 645
TrampolineX646:
    trampoline_x87 646
TrampolineX647:
    trampoline_x87 647
TrampolineX648:
    trampoline_x87 648
TrampolineX649:
    trampoline_x87 649
TrampolineX650:
    trampoline_x87 650
TrampolineX651:
    trampoline_x87 651
TrampolineX652:
    trampoline_x87 652
TrampolineX653:
    trampoline_x87 653
TrampolineX654:
    trampoline_x87 654
TrampolineX655:
    trampoline_x87 655
TrampolineX656:
    trampoline_x87 656
TrampolineX657:
    trampoline_x87 657
TrampolineX658:
    trampoline_x87 658
TrampolineX659:
    trampoline_x87 659
TrampolineX660:
    trampoline_x87 660
TrampolineX661:
    trampoline_x87 661
TrampolineX662:
    trampoline_x87 662
TrampolineX663:
    trampoline_x87 663
TrampolineX664:
    trampoline_x87 664
TrampolineX665:
    trampoline_x87 665
TrampolineX666:
    trampoline_x87 666
TrampolineX667:
    trampoline_x87 667
TrampolineX668:
    trampoline_x87 668
TrampolineX669:
    trampoline_x87 669
TrampolineX670:
    trampoline_x87 670
TrampolineX671:
    trampoline_x87 671
TrampolineX672:
    trampoline_x87 672
TrampolineX673:
    trampoline_x87 673
TrampolineX674:
    trampoline_x87 674
TrampolineX675:
    trampoline_x87 675
TrampolineX676:
    trampoline_x87 676
TrampolineX677:
    trampoline_x87 677
TrampolineX678:
    trampoline_x87 678
TrampolineX679:
    trampoline_x87 679
TrampolineX680:
    trampoline_x87 680
TrampolineX681:
    trampoline_x87 681
TrampolineX682:
    trampoline_x87 682
TrampolineX683:
    trampoline_x87 683
TrampolineX684:
    trampoline_x87 684
TrampolineX685:
    trampoline_x87 685
TrampolineX686:
    trampoline_x87 686
TrampolineX687:
    trampoline_x87 687
TrampolineX688:
    trampoline_x87 688
TrampolineX689:
    trampoline_x87 689
TrampolineX690:
    trampoline_x87 690
TrampolineX691:
    trampoline_x87 691
TrampolineX692:
    trampoline_x87 692
TrampolineX693:
    trampoline_x87 693
TrampolineX694:
    trampoline_x87 694
TrampolineX695:
    trampoline_x87 695
TrampolineX696:
    trampoline_x87 696
TrampolineX697:
    trampoline_x87 697
TrampolineX698:
    trampoline_x87 698
TrampolineX699:
    trampoline_x87 699
TrampolineX700:
    trampoline_x87 700
TrampolineX701:
    trampoline_x87 701
TrampolineX702:
    trampoline_x87 702
TrampolineX703:
    trampoline_x87 703
TrampolineX704:
    trampoline_x87 704
TrampolineX705:
    trampoline_x87 705
TrampolineX706:
    trampoline_x87 706
TrampolineX707:
    trampoline_x87 707
TrampolineX708:
    trampoline_x87 708
TrampolineX709:
    trampoline_x87 709
TrampolineX710:
    trampoline_x87 710
TrampolineX711:
    trampoline_x87 711
TrampolineX712:
    trampoline_x87 712
TrampolineX713:
    trampoline_x87 713
TrampolineX714:
    trampoline_x87 714
TrampolineX715:
    trampoline_x87 715
TrampolineX716:
    trampoline_x87 716
TrampolineX717:
    trampoline_x87 717
TrampolineX718:
    trampoline_x87 718
TrampolineX719:
    trampoline_x87 719
TrampolineX720:
    trampoline_x87 720
TrampolineX721:
    trampoline_x87 721
TrampolineX722:
    trampoline_x87 722
TrampolineX723:
    trampoline_x87 723
TrampolineX724:
    trampoline_x87 724
TrampolineX725:
    trampoline_x87 725
TrampolineX726:
    trampoline_x87 726
TrampolineX727:
    trampoline_x87 727
TrampolineX728:
    trampoline_x87 728
TrampolineX729:
    trampoline_x87 729
TrampolineX730:
    trampoline_x87 730
TrampolineX731:
    trampoline_x87 731
TrampolineX732:
    trampoline_x87 732
TrampolineX733:
    trampoline_x87 733
TrampolineX734:
    trampoline_x87 734
TrampolineX735:
    trampoline_x87 735
TrampolineX736:
    trampoline_x87 736
TrampolineX737:
    trampoline_x87 737
TrampolineX738:
    trampoline_x87 738
TrampolineX739:
    trampoline_x87 739
TrampolineX740:
    trampoline_x87 740
TrampolineX741:
    trampoline_x87 741
TrampolineX742:
    trampoline_x87 742
TrampolineX743:
    trampoline_x87 743
TrampolineX744:
    trampoline_x87 744
TrampolineX745:
    trampoline_x87 745
TrampolineX746:
    trampoline_x87 746
TrampolineX747:
    trampoline_x87 747
TrampolineX748:
    trampoline_x87 748
TrampolineX749:
    trampoline_x87 749
TrampolineX750:
    trampoline_x87 750
TrampolineX751:
    trampoline_x87 751
TrampolineX752:
    trampoline_x87 752
TrampolineX753:
    trampoline_x87 753
TrampolineX754:
    trampoline_x87 754
TrampolineX755:
    trampoline_x87 755
TrampolineX756:
    trampoline_x87 756
TrampolineX757:
    trampoline_x87 757
TrampolineX758:
    trampoline_x87 758
TrampolineX759:
    trampoline_x87 759
TrampolineX760:
    trampoline_x87 760
TrampolineX761:
    trampoline_x87 761
TrampolineX762:
    trampoline_x87 762
TrampolineX763:
    trampoline_x87 763
TrampolineX764:
    trampoline_x87 764
TrampolineX765:
    trampoline_x87 765
TrampolineX766:
    trampoline_x87 766
TrampolineX767:
    trampoline_x87 767
TrampolineX768:
    trampoline_x87 768
TrampolineX769:
    trampoline_x87 769
TrampolineX770:
    trampoline_x87 770
TrampolineX771:
    trampoline_x87 771
TrampolineX772:
    trampoline_x87 772
TrampolineX773:
    trampoline_x87 773
TrampolineX774:
    trampoline_x87 774
TrampolineX775:
    trampoline_x87 775
TrampolineX776:
    trampoline_x87 776
TrampolineX777:
    trampoline_x87 777
TrampolineX778:
    trampoline_x87 778
TrampolineX779:
    trampoline_x87 779
TrampolineX780:
    trampoline_x87 780
TrampolineX781:
    trampoline_x87 781
TrampolineX782:
    trampoline_x87 782
TrampolineX783:
    trampoline_x87 783
TrampolineX784:
    trampoline_x87 784
TrampolineX785:
    trampoline_x87 785
TrampolineX786:
    trampoline_x87 786
TrampolineX787:
    trampoline_x87 787
TrampolineX788:
    trampoline_x87 788
TrampolineX789:
    trampoline_x87 789
TrampolineX790:
    trampoline_x87 790
TrampolineX791:
    trampoline_x87 791
TrampolineX792:
    trampoline_x87 792
TrampolineX793:
    trampoline_x87 793
TrampolineX794:
    trampoline_x87 794
TrampolineX795:
    trampoline_x87 795
TrampolineX796:
    trampoline_x87 796
TrampolineX797:
    trampoline_x87 797
TrampolineX798:
    trampoline_x87 798
TrampolineX799:
    trampoline_x87 799
TrampolineX800:
    trampoline_x87 800
TrampolineX801:
    trampoline_x87 801
TrampolineX802:
    trampoline_x87 802
TrampolineX803:
    trampoline_x87 803
TrampolineX804:
    trampoline_x87 804
TrampolineX805:
    trampoline_x87 805
TrampolineX806:
    trampoline_x87 806
TrampolineX807:
    trampoline_x87 807
TrampolineX808:
    trampoline_x87 808
TrampolineX809:
    trampoline_x87 809
TrampolineX810:
    trampoline_x87 810
TrampolineX811:
    trampoline_x87 811
TrampolineX812:
    trampoline_x87 812
TrampolineX813:
    trampoline_x87 813
TrampolineX814:
    trampoline_x87 814
TrampolineX815:
    trampoline_x87 815
TrampolineX816:
    trampoline_x87 816
TrampolineX817:
    trampoline_x87 817
TrampolineX818:
    trampoline_x87 818
TrampolineX819:
    trampoline_x87 819
TrampolineX820:
    trampoline_x87 820
TrampolineX821:
    trampoline_x87 821
TrampolineX822:
    trampoline_x87 822
TrampolineX823:
    trampoline_x87 823
TrampolineX824:
    trampoline_x87 824
TrampolineX825:
    trampoline_x87 825
TrampolineX826:
    trampoline_x87 826
TrampolineX827:
    trampoline_x87 827
TrampolineX828:
    trampoline_x87 828
TrampolineX829:
    trampoline_x87 829
TrampolineX830:
    trampoline_x87 830
TrampolineX831:
    trampoline_x87 831
TrampolineX832:
    trampoline_x87 832
TrampolineX833:
    trampoline_x87 833
TrampolineX834:
    trampoline_x87 834
TrampolineX835:
    trampoline_x87 835
TrampolineX836:
    trampoline_x87 836
TrampolineX837:
    trampoline_x87 837
TrampolineX838:
    trampoline_x87 838
TrampolineX839:
    trampoline_x87 839
TrampolineX840:
    trampoline_x87 840
TrampolineX841:
    trampoline_x87 841
TrampolineX842:
    trampoline_x87 842
TrampolineX843:
    trampoline_x87 843
TrampolineX844:
    trampoline_x87 844
TrampolineX845:
    trampoline_x87 845
TrampolineX846:
    trampoline_x87 846
TrampolineX847:
    trampoline_x87 847
TrampolineX848:
    trampoline_x87 848
TrampolineX849:
    trampoline_x87 849
TrampolineX850:
    trampoline_x87 850
TrampolineX851:
    trampoline_x87 851
TrampolineX852:
    trampoline_x87 852
TrampolineX853:
    trampoline_x87 853
TrampolineX854:
    trampoline_x87 854
TrampolineX855:
    trampoline_x87 855
TrampolineX856:
    trampoline_x87 856
TrampolineX857:
    trampoline_x87 857
TrampolineX858:
    trampoline_x87 858
TrampolineX859:
    trampoline_x87 859
TrampolineX860:
    trampoline_x87 860
TrampolineX861:
    trampoline_x87 861
TrampolineX862:
    trampoline_x87 862
TrampolineX863:
    trampoline_x87 863
TrampolineX864:
    trampoline_x87 864
TrampolineX865:
    trampoline_x87 865
TrampolineX866:
    trampoline_x87 866
TrampolineX867:
    trampoline_x87 867
TrampolineX868:
    trampoline_x87 868
TrampolineX869:
    trampoline_x87 869
TrampolineX870:
    trampoline_x87 870
TrampolineX871:
    trampoline_x87 871
TrampolineX872:
    trampoline_x87 872
TrampolineX873:
    trampoline_x87 873
TrampolineX874:
    trampoline_x87 874
TrampolineX875:
    trampoline_x87 875
TrampolineX876:
    trampoline_x87 876
TrampolineX877:
    trampoline_x87 877
TrampolineX878:
    trampoline_x87 878
TrampolineX879:
    trampoline_x87 879
TrampolineX880:
    trampoline_x87 880
TrampolineX881:
    trampoline_x87 881
TrampolineX882:
    trampoline_x87 882
TrampolineX883:
    trampoline_x87 883
TrampolineX884:
    trampoline_x87 884
TrampolineX885:
    trampoline_x87 885
TrampolineX886:
    trampoline_x87 886
TrampolineX887:
    trampoline_x87 887
TrampolineX888:
    trampoline_x87 888
TrampolineX889:
    trampoline_x87 889
TrampolineX890:
    trampoline_x87 890
TrampolineX891:
    trampoline_x87 891
TrampolineX892:
    trampoline_x87 892
TrampolineX893:
    trampoline_x87 893
TrampolineX894:
    trampoline_x87 894
TrampolineX895:
    trampoline_x87 895
TrampolineX896:
    trampoline_x87 896
TrampolineX897:
    trampoline_x87 897
TrampolineX898:
    trampoline_x87 898
TrampolineX899:
    trampoline_x87 899
TrampolineX900:
    trampoline_x87 900
TrampolineX901:
    trampoline_x87 901
TrampolineX902:
    trampoline_x87 902
TrampolineX903:
    trampoline_x87 903
TrampolineX904:
    trampoline_x87 904
TrampolineX905:
    trampoline_x87 905
TrampolineX906:
    trampoline_x87 906
TrampolineX907:
    trampoline_x87 907
TrampolineX908:
    trampoline_x87 908
TrampolineX909:
    trampoline_x87 909
TrampolineX910:
    trampoline_x87 910
TrampolineX911:
    trampoline_x87 911
TrampolineX912:
    trampoline_x87 912
TrampolineX913:
    trampoline_x87 913
TrampolineX914:
    trampoline_x87 914
TrampolineX915:
    trampoline_x87 915
TrampolineX916:
    trampoline_x87 916
TrampolineX917:
    trampoline_x87 917
TrampolineX918:
    trampoline_x87 918
TrampolineX919:
    trampoline_x87 919
TrampolineX920:
    trampoline_x87 920
TrampolineX921:
    trampoline_x87 921
TrampolineX922:
    trampoline_x87 922
TrampolineX923:
    trampoline_x87 923
TrampolineX924:
    trampoline_x87 924
TrampolineX925:
    trampoline_x87 925
TrampolineX926:
    trampoline_x87 926
TrampolineX927:
    trampoline_x87 927
TrampolineX928:
    trampoline_x87 928
TrampolineX929:
    trampoline_x87 929
TrampolineX930:
    trampoline_x87 930
TrampolineX931:
    trampoline_x87 931
TrampolineX932:
    trampoline_x87 932
TrampolineX933:
    trampoline_x87 933
TrampolineX934:
    trampoline_x87 934
TrampolineX935:
    trampoline_x87 935
TrampolineX936:
    trampoline_x87 936
TrampolineX937:
    trampoline_x87 937
TrampolineX938:
    trampoline_x87 938
TrampolineX939:
    trampoline_x87 939
TrampolineX940:
    trampoline_x87 940
TrampolineX941:
    trampoline_x87 941
TrampolineX942:
    trampoline_x87 942
TrampolineX943:
    trampoline_x87 943
TrampolineX944:
    trampoline_x87 944
TrampolineX945:
    trampoline_x87 945
TrampolineX946:
    trampoline_x87 946
TrampolineX947:
    trampoline_x87 947
TrampolineX948:
    trampoline_x87 948
TrampolineX949:
    trampoline_x87 949
TrampolineX950:
    trampoline_x87 950
TrampolineX951:
    trampoline_x87 951
TrampolineX952:
    trampoline_x87 952
TrampolineX953:
    trampoline_x87 953
TrampolineX954:
    trampoline_x87 954
TrampolineX955:
    trampoline_x87 955
TrampolineX956:
    trampoline_x87 956
TrampolineX957:
    trampoline_x87 957
TrampolineX958:
    trampoline_x87 958
TrampolineX959:
    trampoline_x87 959
TrampolineX960:
    trampoline_x87 960
TrampolineX961:
    trampoline_x87 961
TrampolineX962:
    trampoline_x87 962
TrampolineX963:
    trampoline_x87 963
TrampolineX964:
    trampoline_x87 964
TrampolineX965:
    trampoline_x87 965
TrampolineX966:
    trampoline_x87 966
TrampolineX967:
    trampoline_x87 967
TrampolineX968:
    trampoline_x87 968
TrampolineX969:
    trampoline_x87 969
TrampolineX970:
    trampoline_x87 970
TrampolineX971:
    trampoline_x87 971
TrampolineX972:
    trampoline_x87 972
TrampolineX973:
    trampoline_x87 973
TrampolineX974:
    trampoline_x87 974
TrampolineX975:
    trampoline_x87 975
TrampolineX976:
    trampoline_x87 976
TrampolineX977:
    trampoline_x87 977
TrampolineX978:
    trampoline_x87 978
TrampolineX979:
    trampoline_x87 979
TrampolineX980:
    trampoline_x87 980
TrampolineX981:
    trampoline_x87 981
TrampolineX982:
    trampoline_x87 982
TrampolineX983:
    trampoline_x87 983
TrampolineX984:
    trampoline_x87 984
TrampolineX985:
    trampoline_x87 985
TrampolineX986:
    trampoline_x87 986
TrampolineX987:
    trampoline_x87 987
TrampolineX988:
    trampoline_x87 988
TrampolineX989:
    trampoline_x87 989
TrampolineX990:
    trampoline_x87 990
TrampolineX991:
    trampoline_x87 991
TrampolineX992:
    trampoline_x87 992
TrampolineX993:
    trampoline_x87 993
TrampolineX994:
    trampoline_x87 994
TrampolineX995:
    trampoline_x87 995
TrampolineX996:
    trampoline_x87 996
TrampolineX997:
    trampoline_x87 997
TrampolineX998:
    trampoline_x87 998
TrampolineX999:
    trampoline_x87 999
TrampolineX1000:
    trampoline_x87 1000
TrampolineX1001:
    trampoline_x87 1001
TrampolineX1002:
    trampoline_x87 1002
TrampolineX1003:
    trampoline_x87 1003
TrampolineX1004:
    trampoline_x87 1004
TrampolineX1005:
    trampoline_x87 1005
TrampolineX1006:
    trampoline_x87 1006
TrampolineX1007:
    trampoline_x87 1007
TrampolineX1008:
    trampoline_x87 1008
TrampolineX1009:
    trampoline_x87 1009
TrampolineX1010:
    trampoline_x87 1010
TrampolineX1011:
    trampoline_x87 1011
TrampolineX1012:
    trampoline_x87 1012
TrampolineX1013:
    trampoline_x87 1013
TrampolineX1014:
    trampoline_x87 1014
TrampolineX1015:
    trampoline_x87 1015
TrampolineX1016:
    trampoline_x87 1016
TrampolineX1017:
    trampoline_x87 1017
TrampolineX1018:
    trampoline_x87 1018
TrampolineX1019:
    trampoline_x87 1019
TrampolineX1020:
    trampoline_x87 1020
TrampolineX1021:
    trampoline_x87 1021
TrampolineX1022:
    trampoline_x87 1022
TrampolineX1023:
    trampoline_x87 1023
